	.file	"main.cpp"
	.text
	.section	.text$_ZSt23__is_constant_evaluatedv,"x"
	.linkonce discard
	.globl	_ZSt23__is_constant_evaluatedv
	.def	_ZSt23__is_constant_evaluatedv;	.scl	2;	.type	32;	.endef
	.seh_proc	_ZSt23__is_constant_evaluatedv
_ZSt23__is_constant_evaluatedv:
.LFB1:
	pushq	%rbp
	.seh_pushreg	%rbp
	movq	%rsp, %rbp
	.seh_setframe	%rbp, 0
	.seh_endprologue
	movl	$0, %eax
	popq	%rbp
	ret
	.seh_endproc
	.section	.text$_ZnwyPv,"x"
	.linkonce discard
	.globl	_ZnwyPv
	.def	_ZnwyPv;	.scl	2;	.type	32;	.endef
	.seh_proc	_ZnwyPv
_ZnwyPv:
.LFB86:
	pushq	%rbp
	.seh_pushreg	%rbp
	movq	%rsp, %rbp
	.seh_setframe	%rbp, 0
	.seh_endprologue
	movq	%rcx, 16(%rbp)
	movq	%rdx, 24(%rbp)
	movq	24(%rbp), %rax
	popq	%rbp
	ret
	.seh_endproc
	.section	.text$_ZdlPvS_,"x"
	.linkonce discard
	.globl	_ZdlPvS_
	.def	_ZdlPvS_;	.scl	2;	.type	32;	.endef
	.seh_proc	_ZdlPvS_
_ZdlPvS_:
.LFB88:
	pushq	%rbp
	.seh_pushreg	%rbp
	movq	%rsp, %rbp
	.seh_setframe	%rbp, 0
	.seh_endprologue
	movq	%rcx, 16(%rbp)
	movq	%rdx, 24(%rbp)
	nop
	popq	%rbp
	ret
	.seh_endproc
	.section	.text$_ZNSt11char_traitsIcE6lengthEPKc,"x"
	.linkonce discard
	.globl	_ZNSt11char_traitsIcE6lengthEPKc
	.def	_ZNSt11char_traitsIcE6lengthEPKc;	.scl	2;	.type	32;	.endef
	.seh_proc	_ZNSt11char_traitsIcE6lengthEPKc
_ZNSt11char_traitsIcE6lengthEPKc:
.LFB165:
	pushq	%rbp
	.seh_pushreg	%rbp
	movq	%rsp, %rbp
	.seh_setframe	%rbp, 0
	subq	$32, %rsp
	.seh_stackalloc	32
	.seh_endprologue
	movq	%rcx, 16(%rbp)
	call	_ZSt23__is_constant_evaluatedv
	testb	%al, %al
	je	.L7
	movq	16(%rbp), %rax
	movq	%rax, %rcx
	call	_ZN9__gnu_cxx11char_traitsIcE6lengthEPKc
	jmp	.L8
.L7:
	movq	16(%rbp), %rax
	movq	%rax, %rcx
	call	strlen
	nop
.L8:
	addq	$32, %rsp
	popq	%rbp
	ret
	.seh_endproc
.lcomm _ZStL8__ioinit,1,1
	.section	.text$_ZNSt9_Any_data9_M_accessEv,"x"
	.linkonce discard
	.align 2
	.globl	_ZNSt9_Any_data9_M_accessEv
	.def	_ZNSt9_Any_data9_M_accessEv;	.scl	2;	.type	32;	.endef
	.seh_proc	_ZNSt9_Any_data9_M_accessEv
_ZNSt9_Any_data9_M_accessEv:
.LFB2027:
	pushq	%rbp
	.seh_pushreg	%rbp
	movq	%rsp, %rbp
	.seh_setframe	%rbp, 0
	.seh_endprologue
	movq	%rcx, 16(%rbp)
	movq	16(%rbp), %rax
	popq	%rbp
	ret
	.seh_endproc
	.section	.text$_ZNKSt9_Any_data9_M_accessEv,"x"
	.linkonce discard
	.align 2
	.globl	_ZNKSt9_Any_data9_M_accessEv
	.def	_ZNKSt9_Any_data9_M_accessEv;	.scl	2;	.type	32;	.endef
	.seh_proc	_ZNKSt9_Any_data9_M_accessEv
_ZNKSt9_Any_data9_M_accessEv:
.LFB2028:
	pushq	%rbp
	.seh_pushreg	%rbp
	movq	%rsp, %rbp
	.seh_setframe	%rbp, 0
	.seh_endprologue
	movq	%rcx, 16(%rbp)
	movq	16(%rbp), %rax
	popq	%rbp
	ret
	.seh_endproc
	.section	.text$_ZNSt14_Function_baseD2Ev,"x"
	.linkonce discard
	.align 2
	.globl	_ZNSt14_Function_baseD2Ev
	.def	_ZNSt14_Function_baseD2Ev;	.scl	2;	.type	32;	.endef
	.seh_proc	_ZNSt14_Function_baseD2Ev
_ZNSt14_Function_baseD2Ev:
.LFB2043:
	pushq	%rbp
	.seh_pushreg	%rbp
	movq	%rsp, %rbp
	.seh_setframe	%rbp, 0
	subq	$32, %rsp
	.seh_stackalloc	32
	.seh_endprologue
	movq	%rcx, 16(%rbp)
	movq	16(%rbp), %rax
	movq	16(%rax), %rax
	testq	%rax, %rax
	je	.L15
	movq	16(%rbp), %rax
	movq	16(%rax), %r9
	movq	16(%rbp), %rdx
	movq	16(%rbp), %rax
	movl	$3, %r8d
	movq	%rax, %rcx
	call	*%r9
.L15:
	nop
	addq	$32, %rsp
	popq	%rbp
	ret
	.def	__gxx_personality_seh0;	.scl	2;	.type	32;	.endef
	.seh_handler	__gxx_personality_seh0, @unwind, @except
	.seh_handlerdata
.LLSDA2043:
	.byte	0xff
	.byte	0xff
	.byte	0x1
	.uleb128 .LLSDACSE2043-.LLSDACSB2043
.LLSDACSB2043:
.LLSDACSE2043:
	.section	.text$_ZNSt14_Function_baseD2Ev,"x"
	.linkonce discard
	.seh_endproc
	.section	.text$_ZNKSt14_Function_base8_M_emptyEv,"x"
	.linkonce discard
	.align 2
	.globl	_ZNKSt14_Function_base8_M_emptyEv
	.def	_ZNKSt14_Function_base8_M_emptyEv;	.scl	2;	.type	32;	.endef
	.seh_proc	_ZNKSt14_Function_base8_M_emptyEv
_ZNKSt14_Function_base8_M_emptyEv:
.LFB2045:
	pushq	%rbp
	.seh_pushreg	%rbp
	movq	%rsp, %rbp
	.seh_setframe	%rbp, 0
	.seh_endprologue
	movq	%rcx, 16(%rbp)
	movq	16(%rbp), %rax
	movq	16(%rax), %rax
	testq	%rax, %rax
	sete	%al
	popq	%rbp
	ret
	.seh_endproc
	.section	.text$_ZNSt8__detail17_List_node_headerC1Ev,"x"
	.linkonce discard
	.align 2
	.globl	_ZNSt8__detail17_List_node_headerC1Ev
	.def	_ZNSt8__detail17_List_node_headerC1Ev;	.scl	2;	.type	32;	.endef
	.seh_proc	_ZNSt8__detail17_List_node_headerC1Ev
_ZNSt8__detail17_List_node_headerC1Ev:
.LFB3268:
	pushq	%rbp
	.seh_pushreg	%rbp
	movq	%rsp, %rbp
	.seh_setframe	%rbp, 0
	subq	$32, %rsp
	.seh_stackalloc	32
	.seh_endprologue
	movq	%rcx, 16(%rbp)
	movq	16(%rbp), %rax
	movq	%rax, %rcx
	call	_ZNSt8__detail17_List_node_header7_M_initEv
	nop
	addq	$32, %rsp
	popq	%rbp
	ret
	.seh_endproc
	.section	.text$_ZNSt8__detail17_List_node_header7_M_initEv,"x"
	.linkonce discard
	.align 2
	.globl	_ZNSt8__detail17_List_node_header7_M_initEv
	.def	_ZNSt8__detail17_List_node_header7_M_initEv;	.scl	2;	.type	32;	.endef
	.seh_proc	_ZNSt8__detail17_List_node_header7_M_initEv
_ZNSt8__detail17_List_node_header7_M_initEv:
.LFB3273:
	pushq	%rbp
	.seh_pushreg	%rbp
	movq	%rsp, %rbp
	.seh_setframe	%rbp, 0
	.seh_endprologue
	movq	%rcx, 16(%rbp)
	movq	16(%rbp), %rdx
	movq	16(%rbp), %rax
	movq	%rdx, 8(%rax)
	movq	16(%rbp), %rax
	movq	8(%rax), %rdx
	movq	16(%rbp), %rax
	movq	%rdx, (%rax)
	movq	16(%rbp), %rax
	movq	$0, 16(%rax)
	nop
	popq	%rbp
	ret
	.seh_endproc
	.text
	.align 2
	.def	_ZZ4mainENKUlvE_clEv;	.scl	3;	.type	32;	.endef
	.seh_proc	_ZZ4mainENKUlvE_clEv
_ZZ4mainENKUlvE_clEv:
.LFB3436:
	pushq	%rbp
	.seh_pushreg	%rbp
	movq	%rsp, %rbp
	.seh_setframe	%rbp, 0
	.seh_endprologue
	movq	%rcx, 16(%rbp)
	movq	.refptr.__cpu_model(%rip), %rax
	movl	(%rax), %eax
	cmpl	$2, %eax
	sete	%al
	movzbl	%al, %eax
	testl	%eax, %eax
	setne	%al
	popq	%rbp
	ret
	.seh_endproc
	.align 2
	.def	_ZZ4mainENKUlvE0_clEv;	.scl	3;	.type	32;	.endef
	.seh_proc	_ZZ4mainENKUlvE0_clEv
_ZZ4mainENKUlvE0_clEv:
.LFB3439:
	pushq	%rbp
	.seh_pushreg	%rbp
	movq	%rsp, %rbp
	.seh_setframe	%rbp, 0
	.seh_endprologue
	movq	%rcx, 16(%rbp)
	movq	.refptr.__cpu_model(%rip), %rax
	movl	(%rax), %eax
	cmpl	$1, %eax
	sete	%al
	movzbl	%al, %eax
	testl	%eax, %eax
	setne	%al
	popq	%rbp
	ret
	.seh_endproc
	.align 2
	.def	_ZZ4mainENKUlvE1_clEv;	.scl	3;	.type	32;	.endef
	.seh_proc	_ZZ4mainENKUlvE1_clEv
_ZZ4mainENKUlvE1_clEv:
.LFB3442:
	pushq	%rbp
	.seh_pushreg	%rbp
	movq	%rsp, %rbp
	.seh_setframe	%rbp, 0
	.seh_endprologue
	movq	%rcx, 16(%rbp)
	movq	.refptr.__cpu_model(%rip), %rax
	movl	4(%rax), %eax
	cmpl	$1, %eax
	sete	%al
	movzbl	%al, %eax
	testl	%eax, %eax
	setne	%al
	popq	%rbp
	ret
	.seh_endproc
	.align 2
	.def	_ZZ4mainENKUlvE2_clEv;	.scl	3;	.type	32;	.endef
	.seh_proc	_ZZ4mainENKUlvE2_clEv
_ZZ4mainENKUlvE2_clEv:
.LFB3445:
	pushq	%rbp
	.seh_pushreg	%rbp
	movq	%rsp, %rbp
	.seh_setframe	%rbp, 0
	.seh_endprologue
	movq	%rcx, 16(%rbp)
	movq	.refptr.__cpu_model(%rip), %rax
	movl	4(%rax), %eax
	cmpl	$6, %eax
	sete	%al
	movzbl	%al, %eax
	testl	%eax, %eax
	setne	%al
	popq	%rbp
	ret
	.seh_endproc
	.align 2
	.def	_ZZ4mainENKUlvE3_clEv;	.scl	3;	.type	32;	.endef
	.seh_proc	_ZZ4mainENKUlvE3_clEv
_ZZ4mainENKUlvE3_clEv:
.LFB3448:
	pushq	%rbp
	.seh_pushreg	%rbp
	movq	%rsp, %rbp
	.seh_setframe	%rbp, 0
	.seh_endprologue
	movq	%rcx, 16(%rbp)
	movq	.refptr.__cpu_model(%rip), %rax
	movl	4(%rax), %eax
	cmpl	$2, %eax
	sete	%al
	movzbl	%al, %eax
	testl	%eax, %eax
	setne	%al
	popq	%rbp
	ret
	.seh_endproc
	.align 2
	.def	_ZZ4mainENKUlvE4_clEv;	.scl	3;	.type	32;	.endef
	.seh_proc	_ZZ4mainENKUlvE4_clEv
_ZZ4mainENKUlvE4_clEv:
.LFB3451:
	pushq	%rbp
	.seh_pushreg	%rbp
	movq	%rsp, %rbp
	.seh_setframe	%rbp, 0
	.seh_endprologue
	movq	%rcx, 16(%rbp)
	movq	.refptr.__cpu_model(%rip), %rax
	movl	4(%rax), %eax
	cmpl	$3, %eax
	sete	%al
	movzbl	%al, %eax
	testl	%eax, %eax
	setne	%al
	popq	%rbp
	ret
	.seh_endproc
	.align 2
	.def	_ZZ4mainENKUlvE5_clEv;	.scl	3;	.type	32;	.endef
	.seh_proc	_ZZ4mainENKUlvE5_clEv
_ZZ4mainENKUlvE5_clEv:
.LFB3454:
	pushq	%rbp
	.seh_pushreg	%rbp
	movq	%rsp, %rbp
	.seh_setframe	%rbp, 0
	.seh_endprologue
	movq	%rcx, 16(%rbp)
	movq	.refptr.__cpu_model(%rip), %rax
	movl	8(%rax), %eax
	cmpl	$1, %eax
	sete	%al
	movzbl	%al, %eax
	testl	%eax, %eax
	setne	%al
	popq	%rbp
	ret
	.seh_endproc
	.align 2
	.def	_ZZ4mainENKUlvE6_clEv;	.scl	3;	.type	32;	.endef
	.seh_proc	_ZZ4mainENKUlvE6_clEv
_ZZ4mainENKUlvE6_clEv:
.LFB3457:
	pushq	%rbp
	.seh_pushreg	%rbp
	movq	%rsp, %rbp
	.seh_setframe	%rbp, 0
	.seh_endprologue
	movq	%rcx, 16(%rbp)
	movq	.refptr.__cpu_model(%rip), %rax
	movl	8(%rax), %eax
	cmpl	$2, %eax
	sete	%al
	movzbl	%al, %eax
	testl	%eax, %eax
	setne	%al
	popq	%rbp
	ret
	.seh_endproc
	.align 2
	.def	_ZZ4mainENKUlvE7_clEv;	.scl	3;	.type	32;	.endef
	.seh_proc	_ZZ4mainENKUlvE7_clEv
_ZZ4mainENKUlvE7_clEv:
.LFB3460:
	pushq	%rbp
	.seh_pushreg	%rbp
	movq	%rsp, %rbp
	.seh_setframe	%rbp, 0
	.seh_endprologue
	movq	%rcx, 16(%rbp)
	movq	.refptr.__cpu_model(%rip), %rax
	movl	8(%rax), %eax
	cmpl	$3, %eax
	sete	%al
	movzbl	%al, %eax
	testl	%eax, %eax
	setne	%al
	popq	%rbp
	ret
	.seh_endproc
	.align 2
	.def	_ZZ4mainENKUlvE8_clEv;	.scl	3;	.type	32;	.endef
	.seh_proc	_ZZ4mainENKUlvE8_clEv
_ZZ4mainENKUlvE8_clEv:
.LFB3463:
	pushq	%rbp
	.seh_pushreg	%rbp
	movq	%rsp, %rbp
	.seh_setframe	%rbp, 0
	.seh_endprologue
	movq	%rcx, 16(%rbp)
	movq	.refptr.__cpu_model(%rip), %rax
	movl	8(%rax), %eax
	cmpl	$12, %eax
	sete	%al
	movzbl	%al, %eax
	testl	%eax, %eax
	setne	%al
	popq	%rbp
	ret
	.seh_endproc
	.align 2
	.def	_ZZ4mainENKUlvE9_clEv;	.scl	3;	.type	32;	.endef
	.seh_proc	_ZZ4mainENKUlvE9_clEv
_ZZ4mainENKUlvE9_clEv:
.LFB3466:
	pushq	%rbp
	.seh_pushreg	%rbp
	movq	%rsp, %rbp
	.seh_setframe	%rbp, 0
	.seh_endprologue
	movq	%rcx, 16(%rbp)
	movq	.refptr.__cpu_model(%rip), %rax
	movl	8(%rax), %eax
	cmpl	$13, %eax
	sete	%al
	movzbl	%al, %eax
	testl	%eax, %eax
	setne	%al
	popq	%rbp
	ret
	.seh_endproc
	.align 2
	.def	_ZZ4mainENKUlvE10_clEv;	.scl	3;	.type	32;	.endef
	.seh_proc	_ZZ4mainENKUlvE10_clEv
_ZZ4mainENKUlvE10_clEv:
.LFB3469:
	pushq	%rbp
	.seh_pushreg	%rbp
	movq	%rsp, %rbp
	.seh_setframe	%rbp, 0
	.seh_endprologue
	movq	%rcx, 16(%rbp)
	movq	.refptr.__cpu_model(%rip), %rax
	movl	8(%rax), %eax
	cmpl	$14, %eax
	sete	%al
	movzbl	%al, %eax
	testl	%eax, %eax
	setne	%al
	popq	%rbp
	ret
	.seh_endproc
	.align 2
	.def	_ZZ4mainENKUlvE11_clEv;	.scl	3;	.type	32;	.endef
	.seh_proc	_ZZ4mainENKUlvE11_clEv
_ZZ4mainENKUlvE11_clEv:
.LFB3472:
	pushq	%rbp
	.seh_pushreg	%rbp
	movq	%rsp, %rbp
	.seh_setframe	%rbp, 0
	.seh_endprologue
	movq	%rcx, 16(%rbp)
	movq	.refptr.__cpu_model(%rip), %rax
	movl	8(%rax), %eax
	cmpl	$15, %eax
	sete	%al
	movzbl	%al, %eax
	testl	%eax, %eax
	setne	%al
	popq	%rbp
	ret
	.seh_endproc
	.align 2
	.def	_ZZ4mainENKUlvE12_clEv;	.scl	3;	.type	32;	.endef
	.seh_proc	_ZZ4mainENKUlvE12_clEv
_ZZ4mainENKUlvE12_clEv:
.LFB3475:
	pushq	%rbp
	.seh_pushreg	%rbp
	movq	%rsp, %rbp
	.seh_setframe	%rbp, 0
	.seh_endprologue
	movq	%rcx, 16(%rbp)
	movq	.refptr.__cpu_model(%rip), %rax
	movl	8(%rax), %eax
	cmpl	$16, %eax
	sete	%al
	movzbl	%al, %eax
	testl	%eax, %eax
	setne	%al
	popq	%rbp
	ret
	.seh_endproc
	.align 2
	.def	_ZZ4mainENKUlvE13_clEv;	.scl	3;	.type	32;	.endef
	.seh_proc	_ZZ4mainENKUlvE13_clEv
_ZZ4mainENKUlvE13_clEv:
.LFB3478:
	pushq	%rbp
	.seh_pushreg	%rbp
	movq	%rsp, %rbp
	.seh_setframe	%rbp, 0
	.seh_endprologue
	movq	%rcx, 16(%rbp)
	movq	.refptr.__cpu_model(%rip), %rax
	movl	8(%rax), %eax
	cmpl	$17, %eax
	sete	%al
	movzbl	%al, %eax
	testl	%eax, %eax
	setne	%al
	popq	%rbp
	ret
	.seh_endproc
	.align 2
	.def	_ZZ4mainENKUlvE14_clEv;	.scl	3;	.type	32;	.endef
	.seh_proc	_ZZ4mainENKUlvE14_clEv
_ZZ4mainENKUlvE14_clEv:
.LFB3481:
	pushq	%rbp
	.seh_pushreg	%rbp
	movq	%rsp, %rbp
	.seh_setframe	%rbp, 0
	.seh_endprologue
	movq	%rcx, 16(%rbp)
	movq	.refptr.__cpu_model(%rip), %rax
	movl	8(%rax), %eax
	cmpl	$18, %eax
	sete	%al
	movzbl	%al, %eax
	testl	%eax, %eax
	setne	%al
	popq	%rbp
	ret
	.seh_endproc
	.align 2
	.def	_ZZ4mainENKUlvE15_clEv;	.scl	3;	.type	32;	.endef
	.seh_proc	_ZZ4mainENKUlvE15_clEv
_ZZ4mainENKUlvE15_clEv:
.LFB3484:
	pushq	%rbp
	.seh_pushreg	%rbp
	movq	%rsp, %rbp
	.seh_setframe	%rbp, 0
	.seh_endprologue
	movq	%rcx, 16(%rbp)
	movq	.refptr.__cpu_model(%rip), %rax
	movl	8(%rax), %eax
	cmpl	$19, %eax
	sete	%al
	movzbl	%al, %eax
	testl	%eax, %eax
	setne	%al
	popq	%rbp
	ret
	.seh_endproc
	.align 2
	.def	_ZZ4mainENKUlvE16_clEv;	.scl	3;	.type	32;	.endef
	.seh_proc	_ZZ4mainENKUlvE16_clEv
_ZZ4mainENKUlvE16_clEv:
.LFB3487:
	pushq	%rbp
	.seh_pushreg	%rbp
	movq	%rsp, %rbp
	.seh_setframe	%rbp, 0
	.seh_endprologue
	movq	%rcx, 16(%rbp)
	movq	.refptr.__cpu_model(%rip), %rax
	movl	8(%rax), %eax
	cmpl	$21, %eax
	sete	%al
	movzbl	%al, %eax
	testl	%eax, %eax
	setne	%al
	popq	%rbp
	ret
	.seh_endproc
	.align 2
	.def	_ZZ4mainENKUlvE17_clEv;	.scl	3;	.type	32;	.endef
	.seh_proc	_ZZ4mainENKUlvE17_clEv
_ZZ4mainENKUlvE17_clEv:
.LFB3490:
	pushq	%rbp
	.seh_pushreg	%rbp
	movq	%rsp, %rbp
	.seh_setframe	%rbp, 0
	.seh_endprologue
	movq	%rcx, 16(%rbp)
	movq	.refptr.__cpu_model(%rip), %rax
	movl	8(%rax), %eax
	cmpl	$22, %eax
	sete	%al
	movzbl	%al, %eax
	testl	%eax, %eax
	setne	%al
	popq	%rbp
	ret
	.seh_endproc
	.align 2
	.def	_ZZ4mainENKUlvE18_clEv;	.scl	3;	.type	32;	.endef
	.seh_proc	_ZZ4mainENKUlvE18_clEv
_ZZ4mainENKUlvE18_clEv:
.LFB3493:
	pushq	%rbp
	.seh_pushreg	%rbp
	movq	%rsp, %rbp
	.seh_setframe	%rbp, 0
	.seh_endprologue
	movq	%rcx, 16(%rbp)
	movq	.refptr.__cpu_model(%rip), %rax
	movl	8(%rax), %eax
	cmpl	$23, %eax
	sete	%al
	movzbl	%al, %eax
	testl	%eax, %eax
	setne	%al
	popq	%rbp
	ret
	.seh_endproc
	.align 2
	.def	_ZZ4mainENKUlvE19_clEv;	.scl	3;	.type	32;	.endef
	.seh_proc	_ZZ4mainENKUlvE19_clEv
_ZZ4mainENKUlvE19_clEv:
.LFB3496:
	pushq	%rbp
	.seh_pushreg	%rbp
	movq	%rsp, %rbp
	.seh_setframe	%rbp, 0
	.seh_endprologue
	movq	%rcx, 16(%rbp)
	movq	.refptr.__cpu_model(%rip), %rax
	movl	4(%rax), %eax
	cmpl	$1, %eax
	sete	%al
	movzbl	%al, %eax
	testl	%eax, %eax
	setne	%al
	popq	%rbp
	ret
	.seh_endproc
	.align 2
	.def	_ZZ4mainENKUlvE20_clEv;	.scl	3;	.type	32;	.endef
	.seh_proc	_ZZ4mainENKUlvE20_clEv
_ZZ4mainENKUlvE20_clEv:
.LFB3499:
	pushq	%rbp
	.seh_pushreg	%rbp
	movq	%rsp, %rbp
	.seh_setframe	%rbp, 0
	.seh_endprologue
	movq	%rcx, 16(%rbp)
	movq	.refptr.__cpu_model(%rip), %rax
	movl	4(%rax), %eax
	cmpl	$6, %eax
	sete	%al
	movzbl	%al, %eax
	testl	%eax, %eax
	setne	%al
	popq	%rbp
	ret
	.seh_endproc
	.align 2
	.def	_ZZ4mainENKUlvE21_clEv;	.scl	3;	.type	32;	.endef
	.seh_proc	_ZZ4mainENKUlvE21_clEv
_ZZ4mainENKUlvE21_clEv:
.LFB3502:
	pushq	%rbp
	.seh_pushreg	%rbp
	movq	%rsp, %rbp
	.seh_setframe	%rbp, 0
	.seh_endprologue
	movq	%rcx, 16(%rbp)
	movq	.refptr.__cpu_model(%rip), %rax
	movl	4(%rax), %eax
	cmpl	$12, %eax
	sete	%al
	movzbl	%al, %eax
	testl	%eax, %eax
	setne	%al
	popq	%rbp
	ret
	.seh_endproc
	.align 2
	.def	_ZZ4mainENKUlvE22_clEv;	.scl	3;	.type	32;	.endef
	.seh_proc	_ZZ4mainENKUlvE22_clEv
_ZZ4mainENKUlvE22_clEv:
.LFB3505:
	pushq	%rbp
	.seh_pushreg	%rbp
	movq	%rsp, %rbp
	.seh_setframe	%rbp, 0
	.seh_endprologue
	movq	%rcx, 16(%rbp)
	movq	.refptr.__cpu_model(%rip), %rax
	movl	4(%rax), %eax
	cmpl	$13, %eax
	sete	%al
	movzbl	%al, %eax
	testl	%eax, %eax
	setne	%al
	popq	%rbp
	ret
	.seh_endproc
	.align 2
	.def	_ZZ4mainENKUlvE23_clEv;	.scl	3;	.type	32;	.endef
	.seh_proc	_ZZ4mainENKUlvE23_clEv
_ZZ4mainENKUlvE23_clEv:
.LFB3508:
	pushq	%rbp
	.seh_pushreg	%rbp
	movq	%rsp, %rbp
	.seh_setframe	%rbp, 0
	.seh_endprologue
	movq	%rcx, 16(%rbp)
	movq	.refptr.__cpu_model(%rip), %rax
	movl	4(%rax), %eax
	cmpl	$14, %eax
	sete	%al
	movzbl	%al, %eax
	testl	%eax, %eax
	setne	%al
	popq	%rbp
	ret
	.seh_endproc
	.align 2
	.def	_ZZ4mainENKUlvE24_clEv;	.scl	3;	.type	32;	.endef
	.seh_proc	_ZZ4mainENKUlvE24_clEv
_ZZ4mainENKUlvE24_clEv:
.LFB3511:
	pushq	%rbp
	.seh_pushreg	%rbp
	movq	%rsp, %rbp
	.seh_setframe	%rbp, 0
	.seh_endprologue
	movq	%rcx, 16(%rbp)
	movq	.refptr.__cpu_model(%rip), %rax
	movl	4(%rax), %eax
	cmpl	$7, %eax
	sete	%al
	movzbl	%al, %eax
	testl	%eax, %eax
	setne	%al
	popq	%rbp
	ret
	.seh_endproc
	.align 2
	.def	_ZZ4mainENKUlvE25_clEv;	.scl	3;	.type	32;	.endef
	.seh_proc	_ZZ4mainENKUlvE25_clEv
_ZZ4mainENKUlvE25_clEv:
.LFB3514:
	pushq	%rbp
	.seh_pushreg	%rbp
	movq	%rsp, %rbp
	.seh_setframe	%rbp, 0
	.seh_endprologue
	movq	%rcx, 16(%rbp)
	movq	.refptr.__cpu_model(%rip), %rax
	movl	4(%rax), %eax
	cmpl	$11, %eax
	sete	%al
	movzbl	%al, %eax
	testl	%eax, %eax
	setne	%al
	popq	%rbp
	ret
	.seh_endproc
	.align 2
	.def	_ZZ4mainENKUlvE26_clEv;	.scl	3;	.type	32;	.endef
	.seh_proc	_ZZ4mainENKUlvE26_clEv
_ZZ4mainENKUlvE26_clEv:
.LFB3517:
	pushq	%rbp
	.seh_pushreg	%rbp
	movq	%rsp, %rbp
	.seh_setframe	%rbp, 0
	.seh_endprologue
	movq	%rcx, 16(%rbp)
	movq	.refptr.__cpu_model(%rip), %rax
	movl	4(%rax), %eax
	cmpl	$4, %eax
	sete	%al
	movzbl	%al, %eax
	testl	%eax, %eax
	setne	%al
	popq	%rbp
	ret
	.seh_endproc
	.align 2
	.def	_ZZ4mainENKUlvE27_clEv;	.scl	3;	.type	32;	.endef
	.seh_proc	_ZZ4mainENKUlvE27_clEv
_ZZ4mainENKUlvE27_clEv:
.LFB3520:
	pushq	%rbp
	.seh_pushreg	%rbp
	movq	%rsp, %rbp
	.seh_setframe	%rbp, 0
	.seh_endprologue
	movq	%rcx, 16(%rbp)
	movq	.refptr.__cpu_model(%rip), %rax
	movl	8(%rax), %eax
	cmpl	$4, %eax
	sete	%al
	movzbl	%al, %eax
	testl	%eax, %eax
	setne	%al
	popq	%rbp
	ret
	.seh_endproc
	.align 2
	.def	_ZZ4mainENKUlvE28_clEv;	.scl	3;	.type	32;	.endef
	.seh_proc	_ZZ4mainENKUlvE28_clEv
_ZZ4mainENKUlvE28_clEv:
.LFB3523:
	pushq	%rbp
	.seh_pushreg	%rbp
	movq	%rsp, %rbp
	.seh_setframe	%rbp, 0
	.seh_endprologue
	movq	%rcx, 16(%rbp)
	movq	.refptr.__cpu_model(%rip), %rax
	movl	4(%rax), %eax
	cmpl	$5, %eax
	sete	%al
	movzbl	%al, %eax
	testl	%eax, %eax
	setne	%al
	popq	%rbp
	ret
	.seh_endproc
	.align 2
	.def	_ZZ4mainENKUlvE29_clEv;	.scl	3;	.type	32;	.endef
	.seh_proc	_ZZ4mainENKUlvE29_clEv
_ZZ4mainENKUlvE29_clEv:
.LFB3526:
	pushq	%rbp
	.seh_pushreg	%rbp
	movq	%rsp, %rbp
	.seh_setframe	%rbp, 0
	.seh_endprologue
	movq	%rcx, 16(%rbp)
	movq	.refptr.__cpu_model(%rip), %rax
	movl	4(%rax), %eax
	cmpl	$6, %eax
	sete	%al
	movzbl	%al, %eax
	testl	%eax, %eax
	setne	%al
	popq	%rbp
	ret
	.seh_endproc
	.align 2
	.def	_ZZ4mainENKUlvE30_clEv;	.scl	3;	.type	32;	.endef
	.seh_proc	_ZZ4mainENKUlvE30_clEv
_ZZ4mainENKUlvE30_clEv:
.LFB3529:
	pushq	%rbp
	.seh_pushreg	%rbp
	movq	%rsp, %rbp
	.seh_setframe	%rbp, 0
	.seh_endprologue
	movq	%rcx, 16(%rbp)
	movq	.refptr.__cpu_model(%rip), %rax
	movl	8(%rax), %eax
	cmpl	$7, %eax
	sete	%al
	movzbl	%al, %eax
	testl	%eax, %eax
	setne	%al
	popq	%rbp
	ret
	.seh_endproc
	.align 2
	.def	_ZZ4mainENKUlvE31_clEv;	.scl	3;	.type	32;	.endef
	.seh_proc	_ZZ4mainENKUlvE31_clEv
_ZZ4mainENKUlvE31_clEv:
.LFB3532:
	pushq	%rbp
	.seh_pushreg	%rbp
	movq	%rsp, %rbp
	.seh_setframe	%rbp, 0
	.seh_endprologue
	movq	%rcx, 16(%rbp)
	movq	.refptr.__cpu_model(%rip), %rax
	movl	4(%rax), %eax
	cmpl	$5, %eax
	sete	%al
	movzbl	%al, %eax
	testl	%eax, %eax
	setne	%al
	popq	%rbp
	ret
	.seh_endproc
	.align 2
	.def	_ZZ4mainENKUlvE32_clEv;	.scl	3;	.type	32;	.endef
	.seh_proc	_ZZ4mainENKUlvE32_clEv
_ZZ4mainENKUlvE32_clEv:
.LFB3535:
	pushq	%rbp
	.seh_pushreg	%rbp
	movq	%rsp, %rbp
	.seh_setframe	%rbp, 0
	.seh_endprologue
	movq	%rcx, 16(%rbp)
	movq	.refptr.__cpu_model(%rip), %rax
	movl	4(%rax), %eax
	cmpl	$7, %eax
	sete	%al
	movzbl	%al, %eax
	testl	%eax, %eax
	setne	%al
	popq	%rbp
	ret
	.seh_endproc
	.align 2
	.def	_ZZ4mainENKUlvE33_clEv;	.scl	3;	.type	32;	.endef
	.seh_proc	_ZZ4mainENKUlvE33_clEv
_ZZ4mainENKUlvE33_clEv:
.LFB3538:
	pushq	%rbp
	.seh_pushreg	%rbp
	movq	%rsp, %rbp
	.seh_setframe	%rbp, 0
	.seh_endprologue
	movq	%rcx, 16(%rbp)
	movq	.refptr.__cpu_model(%rip), %rax
	movl	4(%rax), %eax
	cmpl	$8, %eax
	sete	%al
	movzbl	%al, %eax
	testl	%eax, %eax
	setne	%al
	popq	%rbp
	ret
	.seh_endproc
	.align 2
	.def	_ZZ4mainENKUlvE34_clEv;	.scl	3;	.type	32;	.endef
	.seh_proc	_ZZ4mainENKUlvE34_clEv
_ZZ4mainENKUlvE34_clEv:
.LFB3541:
	pushq	%rbp
	.seh_pushreg	%rbp
	movq	%rsp, %rbp
	.seh_setframe	%rbp, 0
	.seh_endprologue
	movq	%rcx, 16(%rbp)
	movq	.refptr.__cpu_model(%rip), %rax
	movl	8(%rax), %eax
	cmpl	$9, %eax
	sete	%al
	movzbl	%al, %eax
	testl	%eax, %eax
	setne	%al
	popq	%rbp
	ret
	.seh_endproc
	.align 2
	.def	_ZZ4mainENKUlvE35_clEv;	.scl	3;	.type	32;	.endef
	.seh_proc	_ZZ4mainENKUlvE35_clEv
_ZZ4mainENKUlvE35_clEv:
.LFB3544:
	pushq	%rbp
	.seh_pushreg	%rbp
	movq	%rsp, %rbp
	.seh_setframe	%rbp, 0
	.seh_endprologue
	movq	%rcx, 16(%rbp)
	movq	.refptr.__cpu_model(%rip), %rax
	movl	8(%rax), %eax
	cmpl	$10, %eax
	sete	%al
	movzbl	%al, %eax
	testl	%eax, %eax
	setne	%al
	popq	%rbp
	ret
	.seh_endproc
	.align 2
	.def	_ZZ4mainENKUlvE36_clEv;	.scl	3;	.type	32;	.endef
	.seh_proc	_ZZ4mainENKUlvE36_clEv
_ZZ4mainENKUlvE36_clEv:
.LFB3547:
	pushq	%rbp
	.seh_pushreg	%rbp
	movq	%rsp, %rbp
	.seh_setframe	%rbp, 0
	.seh_endprologue
	movq	%rcx, 16(%rbp)
	movq	.refptr.__cpu_model(%rip), %rax
	movl	4(%rax), %eax
	cmpl	$9, %eax
	sete	%al
	movzbl	%al, %eax
	testl	%eax, %eax
	setne	%al
	popq	%rbp
	ret
	.seh_endproc
	.align 2
	.def	_ZZ4mainENKUlvE37_clEv;	.scl	3;	.type	32;	.endef
	.seh_proc	_ZZ4mainENKUlvE37_clEv
_ZZ4mainENKUlvE37_clEv:
.LFB3550:
	pushq	%rbp
	.seh_pushreg	%rbp
	movq	%rsp, %rbp
	.seh_setframe	%rbp, 0
	.seh_endprologue
	movq	%rcx, 16(%rbp)
	movq	.refptr.__cpu_model(%rip), %rax
	movl	4(%rax), %eax
	cmpl	$10, %eax
	sete	%al
	movzbl	%al, %eax
	testl	%eax, %eax
	setne	%al
	popq	%rbp
	ret
	.seh_endproc
	.align 2
	.def	_ZZ4mainENKUlvE38_clEv;	.scl	3;	.type	32;	.endef
	.seh_proc	_ZZ4mainENKUlvE38_clEv
_ZZ4mainENKUlvE38_clEv:
.LFB3553:
	pushq	%rbp
	.seh_pushreg	%rbp
	movq	%rsp, %rbp
	.seh_setframe	%rbp, 0
	.seh_endprologue
	movq	%rcx, 16(%rbp)
	movq	.refptr.__cpu_model(%rip), %rax
	movl	8(%rax), %eax
	cmpl	$11, %eax
	sete	%al
	movzbl	%al, %eax
	testl	%eax, %eax
	setne	%al
	popq	%rbp
	ret
	.seh_endproc
	.align 2
	.def	_ZZ4mainENKUlvE39_clEv;	.scl	3;	.type	32;	.endef
	.seh_proc	_ZZ4mainENKUlvE39_clEv
_ZZ4mainENKUlvE39_clEv:
.LFB3556:
	pushq	%rbp
	.seh_pushreg	%rbp
	movq	%rsp, %rbp
	.seh_setframe	%rbp, 0
	.seh_endprologue
	movq	%rcx, 16(%rbp)
	movq	.refptr.__cpu_model(%rip), %rax
	movl	8(%rax), %eax
	cmpl	$20, %eax
	sete	%al
	movzbl	%al, %eax
	testl	%eax, %eax
	setne	%al
	popq	%rbp
	ret
	.seh_endproc
	.align 2
	.def	_ZZ4mainENKUlvE40_clEv;	.scl	3;	.type	32;	.endef
	.seh_proc	_ZZ4mainENKUlvE40_clEv
_ZZ4mainENKUlvE40_clEv:
.LFB3559:
	pushq	%rbp
	.seh_pushreg	%rbp
	movq	%rsp, %rbp
	.seh_setframe	%rbp, 0
	.seh_endprologue
	movq	%rcx, 16(%rbp)
	movq	.refptr.__cpu_model(%rip), %rax
	movl	4(%rax), %eax
	cmpl	$15, %eax
	sete	%al
	movzbl	%al, %eax
	testl	%eax, %eax
	setne	%al
	popq	%rbp
	ret
	.seh_endproc
	.align 2
	.def	_ZZ4mainENKUlvE41_clEv;	.scl	3;	.type	32;	.endef
	.seh_proc	_ZZ4mainENKUlvE41_clEv
_ZZ4mainENKUlvE41_clEv:
.LFB3562:
	pushq	%rbp
	.seh_pushreg	%rbp
	movq	%rsp, %rbp
	.seh_setframe	%rbp, 0
	.seh_endprologue
	movq	%rcx, 16(%rbp)
	movq	.refptr.__cpu_model(%rip), %rax
	movl	8(%rax), %eax
	cmpl	$26, %eax
	sete	%al
	movzbl	%al, %eax
	testl	%eax, %eax
	setne	%al
	popq	%rbp
	ret
	.seh_endproc
	.section	.text$_ZNSt8functionIFbvEED1Ev,"x"
	.linkonce discard
	.align 2
	.globl	_ZNSt8functionIFbvEED1Ev
	.def	_ZNSt8functionIFbvEED1Ev;	.scl	2;	.type	32;	.endef
	.seh_proc	_ZNSt8functionIFbvEED1Ev
_ZNSt8functionIFbvEED1Ev:
.LFB3747:
	pushq	%rbp
	.seh_pushreg	%rbp
	movq	%rsp, %rbp
	.seh_setframe	%rbp, 0
	subq	$32, %rsp
	.seh_stackalloc	32
	.seh_endprologue
	movq	%rcx, 16(%rbp)
	movq	16(%rbp), %rax
	movq	%rax, %rcx
	call	_ZNSt14_Function_baseD2Ev
	nop
	addq	$32, %rsp
	popq	%rbp
	ret
	.seh_endproc
	.section	.text$_ZNSt4pairISt8functionIFbvEENSt7__cxx1112basic_stringIcSt11char_traitsIcESaIcEEEED1Ev,"x"
	.linkonce discard
	.align 2
	.globl	_ZNSt4pairISt8functionIFbvEENSt7__cxx1112basic_stringIcSt11char_traitsIcESaIcEEEED1Ev
	.def	_ZNSt4pairISt8functionIFbvEENSt7__cxx1112basic_stringIcSt11char_traitsIcESaIcEEEED1Ev;	.scl	2;	.type	32;	.endef
	.seh_proc	_ZNSt4pairISt8functionIFbvEENSt7__cxx1112basic_stringIcSt11char_traitsIcESaIcEEEED1Ev
_ZNSt4pairISt8functionIFbvEENSt7__cxx1112basic_stringIcSt11char_traitsIcESaIcEEEED1Ev:
.LFB3749:
	pushq	%rbp
	.seh_pushreg	%rbp
	movq	%rsp, %rbp
	.seh_setframe	%rbp, 0
	subq	$32, %rsp
	.seh_stackalloc	32
	.seh_endprologue
	movq	%rcx, 16(%rbp)
	movq	16(%rbp), %rax
	addq	$32, %rax
	movq	%rax, %rcx
	call	_ZNSt7__cxx1112basic_stringIcSt11char_traitsIcESaIcEED1Ev
	movq	16(%rbp), %rax
	movq	%rax, %rcx
	call	_ZNSt8functionIFbvEED1Ev
	nop
	addq	$32, %rsp
	popq	%rbp
	ret
	.seh_endproc
	.text
	.align 2
	.def	_ZNSt4pairISt8functionIFbvEENSt7__cxx1112basic_stringIcSt11char_traitsIcESaIcEEEEC2IZ4mainEUlvE_RA8_KcLb1EEEOT_OT0_;	.scl	3;	.type	32;	.endef
	.seh_proc	_ZNSt4pairISt8functionIFbvEENSt7__cxx1112basic_stringIcSt11char_traitsIcESaIcEEEEC2IZ4mainEUlvE_RA8_KcLb1EEEOT_OT0_
_ZNSt4pairISt8functionIFbvEENSt7__cxx1112basic_stringIcSt11char_traitsIcESaIcEEEEC2IZ4mainEUlvE_RA8_KcLb1EEEOT_OT0_:
.LFB3751:
	pushq	%rbp
	.seh_pushreg	%rbp
	pushq	%rbx
	.seh_pushreg	%rbx
	subq	$56, %rsp
	.seh_stackalloc	56
	leaq	48(%rsp), %rbp
	.seh_setframe	%rbp, 48
	.seh_endprologue
	movq	%rcx, 32(%rbp)
	movq	%rdx, 40(%rbp)
	movq	%r8, 48(%rbp)
	movq	32(%rbp), %rbx
	movq	40(%rbp), %rax
	movq	%rax, %rcx
	call	_ZSt7forwardIZ4mainEUlvE_EOT_RNSt16remove_referenceIS1_E4typeE
	movq	%rax, %rdx
	movq	%rbx, %rcx
	call	_ZNSt8functionIFbvEEC1IZ4mainEUlvE_vEEOT_
	movq	32(%rbp), %rax
	leaq	32(%rax), %rbx
	leaq	-1(%rbp), %rax
	movq	%rax, %rcx
	call	_ZNSaIcEC1Ev
	movq	48(%rbp), %rax
	movq	%rax, %rcx
	call	_ZSt7forwardIRA8_KcEOT_RNSt16remove_referenceIS3_E4typeE
	leaq	-1(%rbp), %rdx
	movq	%rdx, %r8
	movq	%rax, %rdx
	movq	%rbx, %rcx
.LEHB0:
	call	_ZNSt7__cxx1112basic_stringIcSt11char_traitsIcESaIcEEC1IS3_EEPKcRKS3_
.LEHE0:
	leaq	-1(%rbp), %rax
	movq	%rax, %rcx
	call	_ZNSaIcED1Ev
	jmp	.L111
.L110:
	movq	%rax, %rbx
	leaq	-1(%rbp), %rax
	movq	%rax, %rcx
	call	_ZNSaIcED1Ev
	movq	32(%rbp), %rax
	movq	%rax, %rcx
	call	_ZNSt8functionIFbvEED1Ev
	movq	%rbx, %rax
	movq	%rax, %rcx
.LEHB1:
	call	_Unwind_Resume
	nop
.LEHE1:
.L111:
	addq	$56, %rsp
	popq	%rbx
	popq	%rbp
	ret
	.seh_handler	__gxx_personality_seh0, @unwind, @except
	.seh_handlerdata
.LLSDA3751:
	.byte	0xff
	.byte	0xff
	.byte	0x1
	.uleb128 .LLSDACSE3751-.LLSDACSB3751
.LLSDACSB3751:
	.uleb128 .LEHB0-.LFB3751
	.uleb128 .LEHE0-.LEHB0
	.uleb128 .L110-.LFB3751
	.uleb128 0
	.uleb128 .LEHB1-.LFB3751
	.uleb128 .LEHE1-.LEHB1
	.uleb128 0
	.uleb128 0
.LLSDACSE3751:
	.text
	.seh_endproc
	.def	_ZNSt4pairISt8functionIFbvEENSt7__cxx1112basic_stringIcSt11char_traitsIcESaIcEEEEC1IZ4mainEUlvE_RA8_KcLb1EEEOT_OT0_;	.scl	3;	.type	32;	.endef
	.set	_ZNSt4pairISt8functionIFbvEENSt7__cxx1112basic_stringIcSt11char_traitsIcESaIcEEEEC1IZ4mainEUlvE_RA8_KcLb1EEEOT_OT0_,_ZNSt4pairISt8functionIFbvEENSt7__cxx1112basic_stringIcSt11char_traitsIcESaIcEEEEC2IZ4mainEUlvE_RA8_KcLb1EEEOT_OT0_
	.align 2
	.def	_ZNSt4pairISt8functionIFbvEENSt7__cxx1112basic_stringIcSt11char_traitsIcESaIcEEEEC2IZ4mainEUlvE0_RA10_KcLb1EEEOT_OT0_;	.scl	3;	.type	32;	.endef
	.seh_proc	_ZNSt4pairISt8functionIFbvEENSt7__cxx1112basic_stringIcSt11char_traitsIcESaIcEEEEC2IZ4mainEUlvE0_RA10_KcLb1EEEOT_OT0_
_ZNSt4pairISt8functionIFbvEENSt7__cxx1112basic_stringIcSt11char_traitsIcESaIcEEEEC2IZ4mainEUlvE0_RA10_KcLb1EEEOT_OT0_:
.LFB3754:
	pushq	%rbp
	.seh_pushreg	%rbp
	pushq	%rbx
	.seh_pushreg	%rbx
	subq	$56, %rsp
	.seh_stackalloc	56
	leaq	48(%rsp), %rbp
	.seh_setframe	%rbp, 48
	.seh_endprologue
	movq	%rcx, 32(%rbp)
	movq	%rdx, 40(%rbp)
	movq	%r8, 48(%rbp)
	movq	32(%rbp), %rbx
	movq	40(%rbp), %rax
	movq	%rax, %rcx
	call	_ZSt7forwardIZ4mainEUlvE0_EOT_RNSt16remove_referenceIS1_E4typeE
	movq	%rax, %rdx
	movq	%rbx, %rcx
	call	_ZNSt8functionIFbvEEC1IZ4mainEUlvE0_vEEOT_
	movq	32(%rbp), %rax
	leaq	32(%rax), %rbx
	leaq	-1(%rbp), %rax
	movq	%rax, %rcx
	call	_ZNSaIcEC1Ev
	movq	48(%rbp), %rax
	movq	%rax, %rcx
	call	_ZSt7forwardIRA10_KcEOT_RNSt16remove_referenceIS3_E4typeE
	leaq	-1(%rbp), %rdx
	movq	%rdx, %r8
	movq	%rax, %rdx
	movq	%rbx, %rcx
.LEHB2:
	call	_ZNSt7__cxx1112basic_stringIcSt11char_traitsIcESaIcEEC1IS3_EEPKcRKS3_
.LEHE2:
	leaq	-1(%rbp), %rax
	movq	%rax, %rcx
	call	_ZNSaIcED1Ev
	jmp	.L115
.L114:
	movq	%rax, %rbx
	leaq	-1(%rbp), %rax
	movq	%rax, %rcx
	call	_ZNSaIcED1Ev
	movq	32(%rbp), %rax
	movq	%rax, %rcx
	call	_ZNSt8functionIFbvEED1Ev
	movq	%rbx, %rax
	movq	%rax, %rcx
.LEHB3:
	call	_Unwind_Resume
	nop
.LEHE3:
.L115:
	addq	$56, %rsp
	popq	%rbx
	popq	%rbp
	ret
	.seh_handler	__gxx_personality_seh0, @unwind, @except
	.seh_handlerdata
.LLSDA3754:
	.byte	0xff
	.byte	0xff
	.byte	0x1
	.uleb128 .LLSDACSE3754-.LLSDACSB3754
.LLSDACSB3754:
	.uleb128 .LEHB2-.LFB3754
	.uleb128 .LEHE2-.LEHB2
	.uleb128 .L114-.LFB3754
	.uleb128 0
	.uleb128 .LEHB3-.LFB3754
	.uleb128 .LEHE3-.LEHB3
	.uleb128 0
	.uleb128 0
.LLSDACSE3754:
	.text
	.seh_endproc
	.def	_ZNSt4pairISt8functionIFbvEENSt7__cxx1112basic_stringIcSt11char_traitsIcESaIcEEEEC1IZ4mainEUlvE0_RA10_KcLb1EEEOT_OT0_;	.scl	3;	.type	32;	.endef
	.set	_ZNSt4pairISt8functionIFbvEENSt7__cxx1112basic_stringIcSt11char_traitsIcESaIcEEEEC1IZ4mainEUlvE0_RA10_KcLb1EEEOT_OT0_,_ZNSt4pairISt8functionIFbvEENSt7__cxx1112basic_stringIcSt11char_traitsIcESaIcEEEEC2IZ4mainEUlvE0_RA10_KcLb1EEEOT_OT0_
	.align 2
	.def	_ZNSt4pairISt8functionIFbvEENSt7__cxx1112basic_stringIcSt11char_traitsIcESaIcEEEEC2IZ4mainEUlvE1_RA15_KcLb1EEEOT_OT0_;	.scl	3;	.type	32;	.endef
	.seh_proc	_ZNSt4pairISt8functionIFbvEENSt7__cxx1112basic_stringIcSt11char_traitsIcESaIcEEEEC2IZ4mainEUlvE1_RA15_KcLb1EEEOT_OT0_
_ZNSt4pairISt8functionIFbvEENSt7__cxx1112basic_stringIcSt11char_traitsIcESaIcEEEEC2IZ4mainEUlvE1_RA15_KcLb1EEEOT_OT0_:
.LFB3757:
	pushq	%rbp
	.seh_pushreg	%rbp
	pushq	%rbx
	.seh_pushreg	%rbx
	subq	$56, %rsp
	.seh_stackalloc	56
	leaq	48(%rsp), %rbp
	.seh_setframe	%rbp, 48
	.seh_endprologue
	movq	%rcx, 32(%rbp)
	movq	%rdx, 40(%rbp)
	movq	%r8, 48(%rbp)
	movq	32(%rbp), %rbx
	movq	40(%rbp), %rax
	movq	%rax, %rcx
	call	_ZSt7forwardIZ4mainEUlvE1_EOT_RNSt16remove_referenceIS1_E4typeE
	movq	%rax, %rdx
	movq	%rbx, %rcx
	call	_ZNSt8functionIFbvEEC1IZ4mainEUlvE1_vEEOT_
	movq	32(%rbp), %rax
	leaq	32(%rax), %rbx
	leaq	-1(%rbp), %rax
	movq	%rax, %rcx
	call	_ZNSaIcEC1Ev
	movq	48(%rbp), %rax
	movq	%rax, %rcx
	call	_ZSt7forwardIRA15_KcEOT_RNSt16remove_referenceIS3_E4typeE
	leaq	-1(%rbp), %rdx
	movq	%rdx, %r8
	movq	%rax, %rdx
	movq	%rbx, %rcx
.LEHB4:
	call	_ZNSt7__cxx1112basic_stringIcSt11char_traitsIcESaIcEEC1IS3_EEPKcRKS3_
.LEHE4:
	leaq	-1(%rbp), %rax
	movq	%rax, %rcx
	call	_ZNSaIcED1Ev
	jmp	.L119
.L118:
	movq	%rax, %rbx
	leaq	-1(%rbp), %rax
	movq	%rax, %rcx
	call	_ZNSaIcED1Ev
	movq	32(%rbp), %rax
	movq	%rax, %rcx
	call	_ZNSt8functionIFbvEED1Ev
	movq	%rbx, %rax
	movq	%rax, %rcx
.LEHB5:
	call	_Unwind_Resume
	nop
.LEHE5:
.L119:
	addq	$56, %rsp
	popq	%rbx
	popq	%rbp
	ret
	.seh_handler	__gxx_personality_seh0, @unwind, @except
	.seh_handlerdata
.LLSDA3757:
	.byte	0xff
	.byte	0xff
	.byte	0x1
	.uleb128 .LLSDACSE3757-.LLSDACSB3757
.LLSDACSB3757:
	.uleb128 .LEHB4-.LFB3757
	.uleb128 .LEHE4-.LEHB4
	.uleb128 .L118-.LFB3757
	.uleb128 0
	.uleb128 .LEHB5-.LFB3757
	.uleb128 .LEHE5-.LEHB5
	.uleb128 0
	.uleb128 0
.LLSDACSE3757:
	.text
	.seh_endproc
	.def	_ZNSt4pairISt8functionIFbvEENSt7__cxx1112basic_stringIcSt11char_traitsIcESaIcEEEEC1IZ4mainEUlvE1_RA15_KcLb1EEEOT_OT0_;	.scl	3;	.type	32;	.endef
	.set	_ZNSt4pairISt8functionIFbvEENSt7__cxx1112basic_stringIcSt11char_traitsIcESaIcEEEEC1IZ4mainEUlvE1_RA15_KcLb1EEEOT_OT0_,_ZNSt4pairISt8functionIFbvEENSt7__cxx1112basic_stringIcSt11char_traitsIcESaIcEEEEC2IZ4mainEUlvE1_RA15_KcLb1EEEOT_OT0_
	.align 2
	.def	_ZNSt4pairISt8functionIFbvEENSt7__cxx1112basic_stringIcSt11char_traitsIcESaIcEEEEC2IZ4mainEUlvE2_RA21_KcLb1EEEOT_OT0_;	.scl	3;	.type	32;	.endef
	.seh_proc	_ZNSt4pairISt8functionIFbvEENSt7__cxx1112basic_stringIcSt11char_traitsIcESaIcEEEEC2IZ4mainEUlvE2_RA21_KcLb1EEEOT_OT0_
_ZNSt4pairISt8functionIFbvEENSt7__cxx1112basic_stringIcSt11char_traitsIcESaIcEEEEC2IZ4mainEUlvE2_RA21_KcLb1EEEOT_OT0_:
.LFB3760:
	pushq	%rbp
	.seh_pushreg	%rbp
	pushq	%rbx
	.seh_pushreg	%rbx
	subq	$56, %rsp
	.seh_stackalloc	56
	leaq	48(%rsp), %rbp
	.seh_setframe	%rbp, 48
	.seh_endprologue
	movq	%rcx, 32(%rbp)
	movq	%rdx, 40(%rbp)
	movq	%r8, 48(%rbp)
	movq	32(%rbp), %rbx
	movq	40(%rbp), %rax
	movq	%rax, %rcx
	call	_ZSt7forwardIZ4mainEUlvE2_EOT_RNSt16remove_referenceIS1_E4typeE
	movq	%rax, %rdx
	movq	%rbx, %rcx
	call	_ZNSt8functionIFbvEEC1IZ4mainEUlvE2_vEEOT_
	movq	32(%rbp), %rax
	leaq	32(%rax), %rbx
	leaq	-1(%rbp), %rax
	movq	%rax, %rcx
	call	_ZNSaIcEC1Ev
	movq	48(%rbp), %rax
	movq	%rax, %rcx
	call	_ZSt7forwardIRA21_KcEOT_RNSt16remove_referenceIS3_E4typeE
	leaq	-1(%rbp), %rdx
	movq	%rdx, %r8
	movq	%rax, %rdx
	movq	%rbx, %rcx
.LEHB6:
	call	_ZNSt7__cxx1112basic_stringIcSt11char_traitsIcESaIcEEC1IS3_EEPKcRKS3_
.LEHE6:
	leaq	-1(%rbp), %rax
	movq	%rax, %rcx
	call	_ZNSaIcED1Ev
	jmp	.L123
.L122:
	movq	%rax, %rbx
	leaq	-1(%rbp), %rax
	movq	%rax, %rcx
	call	_ZNSaIcED1Ev
	movq	32(%rbp), %rax
	movq	%rax, %rcx
	call	_ZNSt8functionIFbvEED1Ev
	movq	%rbx, %rax
	movq	%rax, %rcx
.LEHB7:
	call	_Unwind_Resume
	nop
.LEHE7:
.L123:
	addq	$56, %rsp
	popq	%rbx
	popq	%rbp
	ret
	.seh_handler	__gxx_personality_seh0, @unwind, @except
	.seh_handlerdata
.LLSDA3760:
	.byte	0xff
	.byte	0xff
	.byte	0x1
	.uleb128 .LLSDACSE3760-.LLSDACSB3760
.LLSDACSB3760:
	.uleb128 .LEHB6-.LFB3760
	.uleb128 .LEHE6-.LEHB6
	.uleb128 .L122-.LFB3760
	.uleb128 0
	.uleb128 .LEHB7-.LFB3760
	.uleb128 .LEHE7-.LEHB7
	.uleb128 0
	.uleb128 0
.LLSDACSE3760:
	.text
	.seh_endproc
	.def	_ZNSt4pairISt8functionIFbvEENSt7__cxx1112basic_stringIcSt11char_traitsIcESaIcEEEEC1IZ4mainEUlvE2_RA21_KcLb1EEEOT_OT0_;	.scl	3;	.type	32;	.endef
	.set	_ZNSt4pairISt8functionIFbvEENSt7__cxx1112basic_stringIcSt11char_traitsIcESaIcEEEEC1IZ4mainEUlvE2_RA21_KcLb1EEEOT_OT0_,_ZNSt4pairISt8functionIFbvEENSt7__cxx1112basic_stringIcSt11char_traitsIcESaIcEEEEC2IZ4mainEUlvE2_RA21_KcLb1EEEOT_OT0_
	.align 2
	.def	_ZNSt4pairISt8functionIFbvEENSt7__cxx1112basic_stringIcSt11char_traitsIcESaIcEEEEC2IZ4mainEUlvE3_RA17_KcLb1EEEOT_OT0_;	.scl	3;	.type	32;	.endef
	.seh_proc	_ZNSt4pairISt8functionIFbvEENSt7__cxx1112basic_stringIcSt11char_traitsIcESaIcEEEEC2IZ4mainEUlvE3_RA17_KcLb1EEEOT_OT0_
_ZNSt4pairISt8functionIFbvEENSt7__cxx1112basic_stringIcSt11char_traitsIcESaIcEEEEC2IZ4mainEUlvE3_RA17_KcLb1EEEOT_OT0_:
.LFB3763:
	pushq	%rbp
	.seh_pushreg	%rbp
	pushq	%rbx
	.seh_pushreg	%rbx
	subq	$56, %rsp
	.seh_stackalloc	56
	leaq	48(%rsp), %rbp
	.seh_setframe	%rbp, 48
	.seh_endprologue
	movq	%rcx, 32(%rbp)
	movq	%rdx, 40(%rbp)
	movq	%r8, 48(%rbp)
	movq	32(%rbp), %rbx
	movq	40(%rbp), %rax
	movq	%rax, %rcx
	call	_ZSt7forwardIZ4mainEUlvE3_EOT_RNSt16remove_referenceIS1_E4typeE
	movq	%rax, %rdx
	movq	%rbx, %rcx
	call	_ZNSt8functionIFbvEEC1IZ4mainEUlvE3_vEEOT_
	movq	32(%rbp), %rax
	leaq	32(%rax), %rbx
	leaq	-1(%rbp), %rax
	movq	%rax, %rcx
	call	_ZNSaIcEC1Ev
	movq	48(%rbp), %rax
	movq	%rax, %rcx
	call	_ZSt7forwardIRA17_KcEOT_RNSt16remove_referenceIS3_E4typeE
	leaq	-1(%rbp), %rdx
	movq	%rdx, %r8
	movq	%rax, %rdx
	movq	%rbx, %rcx
.LEHB8:
	call	_ZNSt7__cxx1112basic_stringIcSt11char_traitsIcESaIcEEC1IS3_EEPKcRKS3_
.LEHE8:
	leaq	-1(%rbp), %rax
	movq	%rax, %rcx
	call	_ZNSaIcED1Ev
	jmp	.L127
.L126:
	movq	%rax, %rbx
	leaq	-1(%rbp), %rax
	movq	%rax, %rcx
	call	_ZNSaIcED1Ev
	movq	32(%rbp), %rax
	movq	%rax, %rcx
	call	_ZNSt8functionIFbvEED1Ev
	movq	%rbx, %rax
	movq	%rax, %rcx
.LEHB9:
	call	_Unwind_Resume
	nop
.LEHE9:
.L127:
	addq	$56, %rsp
	popq	%rbx
	popq	%rbp
	ret
	.seh_handler	__gxx_personality_seh0, @unwind, @except
	.seh_handlerdata
.LLSDA3763:
	.byte	0xff
	.byte	0xff
	.byte	0x1
	.uleb128 .LLSDACSE3763-.LLSDACSB3763
.LLSDACSB3763:
	.uleb128 .LEHB8-.LFB3763
	.uleb128 .LEHE8-.LEHB8
	.uleb128 .L126-.LFB3763
	.uleb128 0
	.uleb128 .LEHB9-.LFB3763
	.uleb128 .LEHE9-.LEHB9
	.uleb128 0
	.uleb128 0
.LLSDACSE3763:
	.text
	.seh_endproc
	.def	_ZNSt4pairISt8functionIFbvEENSt7__cxx1112basic_stringIcSt11char_traitsIcESaIcEEEEC1IZ4mainEUlvE3_RA17_KcLb1EEEOT_OT0_;	.scl	3;	.type	32;	.endef
	.set	_ZNSt4pairISt8functionIFbvEENSt7__cxx1112basic_stringIcSt11char_traitsIcESaIcEEEEC1IZ4mainEUlvE3_RA17_KcLb1EEEOT_OT0_,_ZNSt4pairISt8functionIFbvEENSt7__cxx1112basic_stringIcSt11char_traitsIcESaIcEEEEC2IZ4mainEUlvE3_RA17_KcLb1EEEOT_OT0_
	.align 2
	.def	_ZNSt4pairISt8functionIFbvEENSt7__cxx1112basic_stringIcSt11char_traitsIcESaIcEEEEC2IZ4mainEUlvE4_RA18_KcLb1EEEOT_OT0_;	.scl	3;	.type	32;	.endef
	.seh_proc	_ZNSt4pairISt8functionIFbvEENSt7__cxx1112basic_stringIcSt11char_traitsIcESaIcEEEEC2IZ4mainEUlvE4_RA18_KcLb1EEEOT_OT0_
_ZNSt4pairISt8functionIFbvEENSt7__cxx1112basic_stringIcSt11char_traitsIcESaIcEEEEC2IZ4mainEUlvE4_RA18_KcLb1EEEOT_OT0_:
.LFB3766:
	pushq	%rbp
	.seh_pushreg	%rbp
	pushq	%rbx
	.seh_pushreg	%rbx
	subq	$56, %rsp
	.seh_stackalloc	56
	leaq	48(%rsp), %rbp
	.seh_setframe	%rbp, 48
	.seh_endprologue
	movq	%rcx, 32(%rbp)
	movq	%rdx, 40(%rbp)
	movq	%r8, 48(%rbp)
	movq	32(%rbp), %rbx
	movq	40(%rbp), %rax
	movq	%rax, %rcx
	call	_ZSt7forwardIZ4mainEUlvE4_EOT_RNSt16remove_referenceIS1_E4typeE
	movq	%rax, %rdx
	movq	%rbx, %rcx
	call	_ZNSt8functionIFbvEEC1IZ4mainEUlvE4_vEEOT_
	movq	32(%rbp), %rax
	leaq	32(%rax), %rbx
	leaq	-1(%rbp), %rax
	movq	%rax, %rcx
	call	_ZNSaIcEC1Ev
	movq	48(%rbp), %rax
	movq	%rax, %rcx
	call	_ZSt7forwardIRA18_KcEOT_RNSt16remove_referenceIS3_E4typeE
	leaq	-1(%rbp), %rdx
	movq	%rdx, %r8
	movq	%rax, %rdx
	movq	%rbx, %rcx
.LEHB10:
	call	_ZNSt7__cxx1112basic_stringIcSt11char_traitsIcESaIcEEC1IS3_EEPKcRKS3_
.LEHE10:
	leaq	-1(%rbp), %rax
	movq	%rax, %rcx
	call	_ZNSaIcED1Ev
	jmp	.L131
.L130:
	movq	%rax, %rbx
	leaq	-1(%rbp), %rax
	movq	%rax, %rcx
	call	_ZNSaIcED1Ev
	movq	32(%rbp), %rax
	movq	%rax, %rcx
	call	_ZNSt8functionIFbvEED1Ev
	movq	%rbx, %rax
	movq	%rax, %rcx
.LEHB11:
	call	_Unwind_Resume
	nop
.LEHE11:
.L131:
	addq	$56, %rsp
	popq	%rbx
	popq	%rbp
	ret
	.seh_handler	__gxx_personality_seh0, @unwind, @except
	.seh_handlerdata
.LLSDA3766:
	.byte	0xff
	.byte	0xff
	.byte	0x1
	.uleb128 .LLSDACSE3766-.LLSDACSB3766
.LLSDACSB3766:
	.uleb128 .LEHB10-.LFB3766
	.uleb128 .LEHE10-.LEHB10
	.uleb128 .L130-.LFB3766
	.uleb128 0
	.uleb128 .LEHB11-.LFB3766
	.uleb128 .LEHE11-.LEHB11
	.uleb128 0
	.uleb128 0
.LLSDACSE3766:
	.text
	.seh_endproc
	.def	_ZNSt4pairISt8functionIFbvEENSt7__cxx1112basic_stringIcSt11char_traitsIcESaIcEEEEC1IZ4mainEUlvE4_RA18_KcLb1EEEOT_OT0_;	.scl	3;	.type	32;	.endef
	.set	_ZNSt4pairISt8functionIFbvEENSt7__cxx1112basic_stringIcSt11char_traitsIcESaIcEEEEC1IZ4mainEUlvE4_RA18_KcLb1EEEOT_OT0_,_ZNSt4pairISt8functionIFbvEENSt7__cxx1112basic_stringIcSt11char_traitsIcESaIcEEEEC2IZ4mainEUlvE4_RA18_KcLb1EEEOT_OT0_
	.align 2
	.def	_ZNSt4pairISt8functionIFbvEENSt7__cxx1112basic_stringIcSt11char_traitsIcESaIcEEEEC2IZ4mainEUlvE5_RA26_KcLb1EEEOT_OT0_;	.scl	3;	.type	32;	.endef
	.seh_proc	_ZNSt4pairISt8functionIFbvEENSt7__cxx1112basic_stringIcSt11char_traitsIcESaIcEEEEC2IZ4mainEUlvE5_RA26_KcLb1EEEOT_OT0_
_ZNSt4pairISt8functionIFbvEENSt7__cxx1112basic_stringIcSt11char_traitsIcESaIcEEEEC2IZ4mainEUlvE5_RA26_KcLb1EEEOT_OT0_:
.LFB3769:
	pushq	%rbp
	.seh_pushreg	%rbp
	pushq	%rbx
	.seh_pushreg	%rbx
	subq	$56, %rsp
	.seh_stackalloc	56
	leaq	48(%rsp), %rbp
	.seh_setframe	%rbp, 48
	.seh_endprologue
	movq	%rcx, 32(%rbp)
	movq	%rdx, 40(%rbp)
	movq	%r8, 48(%rbp)
	movq	32(%rbp), %rbx
	movq	40(%rbp), %rax
	movq	%rax, %rcx
	call	_ZSt7forwardIZ4mainEUlvE5_EOT_RNSt16remove_referenceIS1_E4typeE
	movq	%rax, %rdx
	movq	%rbx, %rcx
	call	_ZNSt8functionIFbvEEC1IZ4mainEUlvE5_vEEOT_
	movq	32(%rbp), %rax
	leaq	32(%rax), %rbx
	leaq	-1(%rbp), %rax
	movq	%rax, %rcx
	call	_ZNSaIcEC1Ev
	movq	48(%rbp), %rax
	movq	%rax, %rcx
	call	_ZSt7forwardIRA26_KcEOT_RNSt16remove_referenceIS3_E4typeE
	leaq	-1(%rbp), %rdx
	movq	%rdx, %r8
	movq	%rax, %rdx
	movq	%rbx, %rcx
.LEHB12:
	call	_ZNSt7__cxx1112basic_stringIcSt11char_traitsIcESaIcEEC1IS3_EEPKcRKS3_
.LEHE12:
	leaq	-1(%rbp), %rax
	movq	%rax, %rcx
	call	_ZNSaIcED1Ev
	jmp	.L135
.L134:
	movq	%rax, %rbx
	leaq	-1(%rbp), %rax
	movq	%rax, %rcx
	call	_ZNSaIcED1Ev
	movq	32(%rbp), %rax
	movq	%rax, %rcx
	call	_ZNSt8functionIFbvEED1Ev
	movq	%rbx, %rax
	movq	%rax, %rcx
.LEHB13:
	call	_Unwind_Resume
	nop
.LEHE13:
.L135:
	addq	$56, %rsp
	popq	%rbx
	popq	%rbp
	ret
	.seh_handler	__gxx_personality_seh0, @unwind, @except
	.seh_handlerdata
.LLSDA3769:
	.byte	0xff
	.byte	0xff
	.byte	0x1
	.uleb128 .LLSDACSE3769-.LLSDACSB3769
.LLSDACSB3769:
	.uleb128 .LEHB12-.LFB3769
	.uleb128 .LEHE12-.LEHB12
	.uleb128 .L134-.LFB3769
	.uleb128 0
	.uleb128 .LEHB13-.LFB3769
	.uleb128 .LEHE13-.LEHB13
	.uleb128 0
	.uleb128 0
.LLSDACSE3769:
	.text
	.seh_endproc
	.def	_ZNSt4pairISt8functionIFbvEENSt7__cxx1112basic_stringIcSt11char_traitsIcESaIcEEEEC1IZ4mainEUlvE5_RA26_KcLb1EEEOT_OT0_;	.scl	3;	.type	32;	.endef
	.set	_ZNSt4pairISt8functionIFbvEENSt7__cxx1112basic_stringIcSt11char_traitsIcESaIcEEEEC1IZ4mainEUlvE5_RA26_KcLb1EEEOT_OT0_,_ZNSt4pairISt8functionIFbvEENSt7__cxx1112basic_stringIcSt11char_traitsIcESaIcEEEEC2IZ4mainEUlvE5_RA26_KcLb1EEEOT_OT0_
	.align 2
	.def	_ZNSt4pairISt8functionIFbvEENSt7__cxx1112basic_stringIcSt11char_traitsIcESaIcEEEEC2IZ4mainEUlvE6_RA27_KcLb1EEEOT_OT0_;	.scl	3;	.type	32;	.endef
	.seh_proc	_ZNSt4pairISt8functionIFbvEENSt7__cxx1112basic_stringIcSt11char_traitsIcESaIcEEEEC2IZ4mainEUlvE6_RA27_KcLb1EEEOT_OT0_
_ZNSt4pairISt8functionIFbvEENSt7__cxx1112basic_stringIcSt11char_traitsIcESaIcEEEEC2IZ4mainEUlvE6_RA27_KcLb1EEEOT_OT0_:
.LFB3772:
	pushq	%rbp
	.seh_pushreg	%rbp
	pushq	%rbx
	.seh_pushreg	%rbx
	subq	$56, %rsp
	.seh_stackalloc	56
	leaq	48(%rsp), %rbp
	.seh_setframe	%rbp, 48
	.seh_endprologue
	movq	%rcx, 32(%rbp)
	movq	%rdx, 40(%rbp)
	movq	%r8, 48(%rbp)
	movq	32(%rbp), %rbx
	movq	40(%rbp), %rax
	movq	%rax, %rcx
	call	_ZSt7forwardIZ4mainEUlvE6_EOT_RNSt16remove_referenceIS1_E4typeE
	movq	%rax, %rdx
	movq	%rbx, %rcx
	call	_ZNSt8functionIFbvEEC1IZ4mainEUlvE6_vEEOT_
	movq	32(%rbp), %rax
	leaq	32(%rax), %rbx
	leaq	-1(%rbp), %rax
	movq	%rax, %rcx
	call	_ZNSaIcEC1Ev
	movq	48(%rbp), %rax
	movq	%rax, %rcx
	call	_ZSt7forwardIRA27_KcEOT_RNSt16remove_referenceIS3_E4typeE
	leaq	-1(%rbp), %rdx
	movq	%rdx, %r8
	movq	%rax, %rdx
	movq	%rbx, %rcx
.LEHB14:
	call	_ZNSt7__cxx1112basic_stringIcSt11char_traitsIcESaIcEEC1IS3_EEPKcRKS3_
.LEHE14:
	leaq	-1(%rbp), %rax
	movq	%rax, %rcx
	call	_ZNSaIcED1Ev
	jmp	.L139
.L138:
	movq	%rax, %rbx
	leaq	-1(%rbp), %rax
	movq	%rax, %rcx
	call	_ZNSaIcED1Ev
	movq	32(%rbp), %rax
	movq	%rax, %rcx
	call	_ZNSt8functionIFbvEED1Ev
	movq	%rbx, %rax
	movq	%rax, %rcx
.LEHB15:
	call	_Unwind_Resume
	nop
.LEHE15:
.L139:
	addq	$56, %rsp
	popq	%rbx
	popq	%rbp
	ret
	.seh_handler	__gxx_personality_seh0, @unwind, @except
	.seh_handlerdata
.LLSDA3772:
	.byte	0xff
	.byte	0xff
	.byte	0x1
	.uleb128 .LLSDACSE3772-.LLSDACSB3772
.LLSDACSB3772:
	.uleb128 .LEHB14-.LFB3772
	.uleb128 .LEHE14-.LEHB14
	.uleb128 .L138-.LFB3772
	.uleb128 0
	.uleb128 .LEHB15-.LFB3772
	.uleb128 .LEHE15-.LEHB15
	.uleb128 0
	.uleb128 0
.LLSDACSE3772:
	.text
	.seh_endproc
	.def	_ZNSt4pairISt8functionIFbvEENSt7__cxx1112basic_stringIcSt11char_traitsIcESaIcEEEEC1IZ4mainEUlvE6_RA27_KcLb1EEEOT_OT0_;	.scl	3;	.type	32;	.endef
	.set	_ZNSt4pairISt8functionIFbvEENSt7__cxx1112basic_stringIcSt11char_traitsIcESaIcEEEEC1IZ4mainEUlvE6_RA27_KcLb1EEEOT_OT0_,_ZNSt4pairISt8functionIFbvEENSt7__cxx1112basic_stringIcSt11char_traitsIcESaIcEEEEC2IZ4mainEUlvE6_RA27_KcLb1EEEOT_OT0_
	.align 2
	.def	_ZNSt4pairISt8functionIFbvEENSt7__cxx1112basic_stringIcSt11char_traitsIcESaIcEEEEC2IZ4mainEUlvE7_RA31_KcLb1EEEOT_OT0_;	.scl	3;	.type	32;	.endef
	.seh_proc	_ZNSt4pairISt8functionIFbvEENSt7__cxx1112basic_stringIcSt11char_traitsIcESaIcEEEEC2IZ4mainEUlvE7_RA31_KcLb1EEEOT_OT0_
_ZNSt4pairISt8functionIFbvEENSt7__cxx1112basic_stringIcSt11char_traitsIcESaIcEEEEC2IZ4mainEUlvE7_RA31_KcLb1EEEOT_OT0_:
.LFB3775:
	pushq	%rbp
	.seh_pushreg	%rbp
	pushq	%rbx
	.seh_pushreg	%rbx
	subq	$56, %rsp
	.seh_stackalloc	56
	leaq	48(%rsp), %rbp
	.seh_setframe	%rbp, 48
	.seh_endprologue
	movq	%rcx, 32(%rbp)
	movq	%rdx, 40(%rbp)
	movq	%r8, 48(%rbp)
	movq	32(%rbp), %rbx
	movq	40(%rbp), %rax
	movq	%rax, %rcx
	call	_ZSt7forwardIZ4mainEUlvE7_EOT_RNSt16remove_referenceIS1_E4typeE
	movq	%rax, %rdx
	movq	%rbx, %rcx
	call	_ZNSt8functionIFbvEEC1IZ4mainEUlvE7_vEEOT_
	movq	32(%rbp), %rax
	leaq	32(%rax), %rbx
	leaq	-1(%rbp), %rax
	movq	%rax, %rcx
	call	_ZNSaIcEC1Ev
	movq	48(%rbp), %rax
	movq	%rax, %rcx
	call	_ZSt7forwardIRA31_KcEOT_RNSt16remove_referenceIS3_E4typeE
	leaq	-1(%rbp), %rdx
	movq	%rdx, %r8
	movq	%rax, %rdx
	movq	%rbx, %rcx
.LEHB16:
	call	_ZNSt7__cxx1112basic_stringIcSt11char_traitsIcESaIcEEC1IS3_EEPKcRKS3_
.LEHE16:
	leaq	-1(%rbp), %rax
	movq	%rax, %rcx
	call	_ZNSaIcED1Ev
	jmp	.L143
.L142:
	movq	%rax, %rbx
	leaq	-1(%rbp), %rax
	movq	%rax, %rcx
	call	_ZNSaIcED1Ev
	movq	32(%rbp), %rax
	movq	%rax, %rcx
	call	_ZNSt8functionIFbvEED1Ev
	movq	%rbx, %rax
	movq	%rax, %rcx
.LEHB17:
	call	_Unwind_Resume
	nop
.LEHE17:
.L143:
	addq	$56, %rsp
	popq	%rbx
	popq	%rbp
	ret
	.seh_handler	__gxx_personality_seh0, @unwind, @except
	.seh_handlerdata
.LLSDA3775:
	.byte	0xff
	.byte	0xff
	.byte	0x1
	.uleb128 .LLSDACSE3775-.LLSDACSB3775
.LLSDACSB3775:
	.uleb128 .LEHB16-.LFB3775
	.uleb128 .LEHE16-.LEHB16
	.uleb128 .L142-.LFB3775
	.uleb128 0
	.uleb128 .LEHB17-.LFB3775
	.uleb128 .LEHE17-.LEHB17
	.uleb128 0
	.uleb128 0
.LLSDACSE3775:
	.text
	.seh_endproc
	.def	_ZNSt4pairISt8functionIFbvEENSt7__cxx1112basic_stringIcSt11char_traitsIcESaIcEEEEC1IZ4mainEUlvE7_RA31_KcLb1EEEOT_OT0_;	.scl	3;	.type	32;	.endef
	.set	_ZNSt4pairISt8functionIFbvEENSt7__cxx1112basic_stringIcSt11char_traitsIcESaIcEEEEC1IZ4mainEUlvE7_RA31_KcLb1EEEOT_OT0_,_ZNSt4pairISt8functionIFbvEENSt7__cxx1112basic_stringIcSt11char_traitsIcESaIcEEEEC2IZ4mainEUlvE7_RA31_KcLb1EEEOT_OT0_
	.align 2
	.def	_ZNSt4pairISt8functionIFbvEENSt7__cxx1112basic_stringIcSt11char_traitsIcESaIcEEEEC2IZ4mainEUlvE8_RA29_KcLb1EEEOT_OT0_;	.scl	3;	.type	32;	.endef
	.seh_proc	_ZNSt4pairISt8functionIFbvEENSt7__cxx1112basic_stringIcSt11char_traitsIcESaIcEEEEC2IZ4mainEUlvE8_RA29_KcLb1EEEOT_OT0_
_ZNSt4pairISt8functionIFbvEENSt7__cxx1112basic_stringIcSt11char_traitsIcESaIcEEEEC2IZ4mainEUlvE8_RA29_KcLb1EEEOT_OT0_:
.LFB3778:
	pushq	%rbp
	.seh_pushreg	%rbp
	pushq	%rbx
	.seh_pushreg	%rbx
	subq	$56, %rsp
	.seh_stackalloc	56
	leaq	48(%rsp), %rbp
	.seh_setframe	%rbp, 48
	.seh_endprologue
	movq	%rcx, 32(%rbp)
	movq	%rdx, 40(%rbp)
	movq	%r8, 48(%rbp)
	movq	32(%rbp), %rbx
	movq	40(%rbp), %rax
	movq	%rax, %rcx
	call	_ZSt7forwardIZ4mainEUlvE8_EOT_RNSt16remove_referenceIS1_E4typeE
	movq	%rax, %rdx
	movq	%rbx, %rcx
	call	_ZNSt8functionIFbvEEC1IZ4mainEUlvE8_vEEOT_
	movq	32(%rbp), %rax
	leaq	32(%rax), %rbx
	leaq	-1(%rbp), %rax
	movq	%rax, %rcx
	call	_ZNSaIcEC1Ev
	movq	48(%rbp), %rax
	movq	%rax, %rcx
	call	_ZSt7forwardIRA29_KcEOT_RNSt16remove_referenceIS3_E4typeE
	leaq	-1(%rbp), %rdx
	movq	%rdx, %r8
	movq	%rax, %rdx
	movq	%rbx, %rcx
.LEHB18:
	call	_ZNSt7__cxx1112basic_stringIcSt11char_traitsIcESaIcEEC1IS3_EEPKcRKS3_
.LEHE18:
	leaq	-1(%rbp), %rax
	movq	%rax, %rcx
	call	_ZNSaIcED1Ev
	jmp	.L147
.L146:
	movq	%rax, %rbx
	leaq	-1(%rbp), %rax
	movq	%rax, %rcx
	call	_ZNSaIcED1Ev
	movq	32(%rbp), %rax
	movq	%rax, %rcx
	call	_ZNSt8functionIFbvEED1Ev
	movq	%rbx, %rax
	movq	%rax, %rcx
.LEHB19:
	call	_Unwind_Resume
	nop
.LEHE19:
.L147:
	addq	$56, %rsp
	popq	%rbx
	popq	%rbp
	ret
	.seh_handler	__gxx_personality_seh0, @unwind, @except
	.seh_handlerdata
.LLSDA3778:
	.byte	0xff
	.byte	0xff
	.byte	0x1
	.uleb128 .LLSDACSE3778-.LLSDACSB3778
.LLSDACSB3778:
	.uleb128 .LEHB18-.LFB3778
	.uleb128 .LEHE18-.LEHB18
	.uleb128 .L146-.LFB3778
	.uleb128 0
	.uleb128 .LEHB19-.LFB3778
	.uleb128 .LEHE19-.LEHB19
	.uleb128 0
	.uleb128 0
.LLSDACSE3778:
	.text
	.seh_endproc
	.def	_ZNSt4pairISt8functionIFbvEENSt7__cxx1112basic_stringIcSt11char_traitsIcESaIcEEEEC1IZ4mainEUlvE8_RA29_KcLb1EEEOT_OT0_;	.scl	3;	.type	32;	.endef
	.set	_ZNSt4pairISt8functionIFbvEENSt7__cxx1112basic_stringIcSt11char_traitsIcESaIcEEEEC1IZ4mainEUlvE8_RA29_KcLb1EEEOT_OT0_,_ZNSt4pairISt8functionIFbvEENSt7__cxx1112basic_stringIcSt11char_traitsIcESaIcEEEEC2IZ4mainEUlvE8_RA29_KcLb1EEEOT_OT0_
	.align 2
	.def	_ZNSt4pairISt8functionIFbvEENSt7__cxx1112basic_stringIcSt11char_traitsIcESaIcEEEEC2IZ4mainEUlvE9_RA26_KcLb1EEEOT_OT0_;	.scl	3;	.type	32;	.endef
	.seh_proc	_ZNSt4pairISt8functionIFbvEENSt7__cxx1112basic_stringIcSt11char_traitsIcESaIcEEEEC2IZ4mainEUlvE9_RA26_KcLb1EEEOT_OT0_
_ZNSt4pairISt8functionIFbvEENSt7__cxx1112basic_stringIcSt11char_traitsIcESaIcEEEEC2IZ4mainEUlvE9_RA26_KcLb1EEEOT_OT0_:
.LFB3781:
	pushq	%rbp
	.seh_pushreg	%rbp
	pushq	%rbx
	.seh_pushreg	%rbx
	subq	$56, %rsp
	.seh_stackalloc	56
	leaq	48(%rsp), %rbp
	.seh_setframe	%rbp, 48
	.seh_endprologue
	movq	%rcx, 32(%rbp)
	movq	%rdx, 40(%rbp)
	movq	%r8, 48(%rbp)
	movq	32(%rbp), %rbx
	movq	40(%rbp), %rax
	movq	%rax, %rcx
	call	_ZSt7forwardIZ4mainEUlvE9_EOT_RNSt16remove_referenceIS1_E4typeE
	movq	%rax, %rdx
	movq	%rbx, %rcx
	call	_ZNSt8functionIFbvEEC1IZ4mainEUlvE9_vEEOT_
	movq	32(%rbp), %rax
	leaq	32(%rax), %rbx
	leaq	-1(%rbp), %rax
	movq	%rax, %rcx
	call	_ZNSaIcEC1Ev
	movq	48(%rbp), %rax
	movq	%rax, %rcx
	call	_ZSt7forwardIRA26_KcEOT_RNSt16remove_referenceIS3_E4typeE
	leaq	-1(%rbp), %rdx
	movq	%rdx, %r8
	movq	%rax, %rdx
	movq	%rbx, %rcx
.LEHB20:
	call	_ZNSt7__cxx1112basic_stringIcSt11char_traitsIcESaIcEEC1IS3_EEPKcRKS3_
.LEHE20:
	leaq	-1(%rbp), %rax
	movq	%rax, %rcx
	call	_ZNSaIcED1Ev
	jmp	.L151
.L150:
	movq	%rax, %rbx
	leaq	-1(%rbp), %rax
	movq	%rax, %rcx
	call	_ZNSaIcED1Ev
	movq	32(%rbp), %rax
	movq	%rax, %rcx
	call	_ZNSt8functionIFbvEED1Ev
	movq	%rbx, %rax
	movq	%rax, %rcx
.LEHB21:
	call	_Unwind_Resume
	nop
.LEHE21:
.L151:
	addq	$56, %rsp
	popq	%rbx
	popq	%rbp
	ret
	.seh_handler	__gxx_personality_seh0, @unwind, @except
	.seh_handlerdata
.LLSDA3781:
	.byte	0xff
	.byte	0xff
	.byte	0x1
	.uleb128 .LLSDACSE3781-.LLSDACSB3781
.LLSDACSB3781:
	.uleb128 .LEHB20-.LFB3781
	.uleb128 .LEHE20-.LEHB20
	.uleb128 .L150-.LFB3781
	.uleb128 0
	.uleb128 .LEHB21-.LFB3781
	.uleb128 .LEHE21-.LEHB21
	.uleb128 0
	.uleb128 0
.LLSDACSE3781:
	.text
	.seh_endproc
	.def	_ZNSt4pairISt8functionIFbvEENSt7__cxx1112basic_stringIcSt11char_traitsIcESaIcEEEEC1IZ4mainEUlvE9_RA26_KcLb1EEEOT_OT0_;	.scl	3;	.type	32;	.endef
	.set	_ZNSt4pairISt8functionIFbvEENSt7__cxx1112basic_stringIcSt11char_traitsIcESaIcEEEEC1IZ4mainEUlvE9_RA26_KcLb1EEEOT_OT0_,_ZNSt4pairISt8functionIFbvEENSt7__cxx1112basic_stringIcSt11char_traitsIcESaIcEEEEC2IZ4mainEUlvE9_RA26_KcLb1EEEOT_OT0_
	.align 2
	.def	_ZNSt4pairISt8functionIFbvEENSt7__cxx1112basic_stringIcSt11char_traitsIcESaIcEEEEC2IZ4mainEUlvE10_RA28_KcLb1EEEOT_OT0_;	.scl	3;	.type	32;	.endef
	.seh_proc	_ZNSt4pairISt8functionIFbvEENSt7__cxx1112basic_stringIcSt11char_traitsIcESaIcEEEEC2IZ4mainEUlvE10_RA28_KcLb1EEEOT_OT0_
_ZNSt4pairISt8functionIFbvEENSt7__cxx1112basic_stringIcSt11char_traitsIcESaIcEEEEC2IZ4mainEUlvE10_RA28_KcLb1EEEOT_OT0_:
.LFB3784:
	pushq	%rbp
	.seh_pushreg	%rbp
	pushq	%rbx
	.seh_pushreg	%rbx
	subq	$56, %rsp
	.seh_stackalloc	56
	leaq	48(%rsp), %rbp
	.seh_setframe	%rbp, 48
	.seh_endprologue
	movq	%rcx, 32(%rbp)
	movq	%rdx, 40(%rbp)
	movq	%r8, 48(%rbp)
	movq	32(%rbp), %rbx
	movq	40(%rbp), %rax
	movq	%rax, %rcx
	call	_ZSt7forwardIZ4mainEUlvE10_EOT_RNSt16remove_referenceIS1_E4typeE
	movq	%rax, %rdx
	movq	%rbx, %rcx
	call	_ZNSt8functionIFbvEEC1IZ4mainEUlvE10_vEEOT_
	movq	32(%rbp), %rax
	leaq	32(%rax), %rbx
	leaq	-1(%rbp), %rax
	movq	%rax, %rcx
	call	_ZNSaIcEC1Ev
	movq	48(%rbp), %rax
	movq	%rax, %rcx
	call	_ZSt7forwardIRA28_KcEOT_RNSt16remove_referenceIS3_E4typeE
	leaq	-1(%rbp), %rdx
	movq	%rdx, %r8
	movq	%rax, %rdx
	movq	%rbx, %rcx
.LEHB22:
	call	_ZNSt7__cxx1112basic_stringIcSt11char_traitsIcESaIcEEC1IS3_EEPKcRKS3_
.LEHE22:
	leaq	-1(%rbp), %rax
	movq	%rax, %rcx
	call	_ZNSaIcED1Ev
	jmp	.L155
.L154:
	movq	%rax, %rbx
	leaq	-1(%rbp), %rax
	movq	%rax, %rcx
	call	_ZNSaIcED1Ev
	movq	32(%rbp), %rax
	movq	%rax, %rcx
	call	_ZNSt8functionIFbvEED1Ev
	movq	%rbx, %rax
	movq	%rax, %rcx
.LEHB23:
	call	_Unwind_Resume
	nop
.LEHE23:
.L155:
	addq	$56, %rsp
	popq	%rbx
	popq	%rbp
	ret
	.seh_handler	__gxx_personality_seh0, @unwind, @except
	.seh_handlerdata
.LLSDA3784:
	.byte	0xff
	.byte	0xff
	.byte	0x1
	.uleb128 .LLSDACSE3784-.LLSDACSB3784
.LLSDACSB3784:
	.uleb128 .LEHB22-.LFB3784
	.uleb128 .LEHE22-.LEHB22
	.uleb128 .L154-.LFB3784
	.uleb128 0
	.uleb128 .LEHB23-.LFB3784
	.uleb128 .LEHE23-.LEHB23
	.uleb128 0
	.uleb128 0
.LLSDACSE3784:
	.text
	.seh_endproc
	.def	_ZNSt4pairISt8functionIFbvEENSt7__cxx1112basic_stringIcSt11char_traitsIcESaIcEEEEC1IZ4mainEUlvE10_RA28_KcLb1EEEOT_OT0_;	.scl	3;	.type	32;	.endef
	.set	_ZNSt4pairISt8functionIFbvEENSt7__cxx1112basic_stringIcSt11char_traitsIcESaIcEEEEC1IZ4mainEUlvE10_RA28_KcLb1EEEOT_OT0_,_ZNSt4pairISt8functionIFbvEENSt7__cxx1112basic_stringIcSt11char_traitsIcESaIcEEEEC2IZ4mainEUlvE10_RA28_KcLb1EEEOT_OT0_
	.align 2
	.def	_ZNSt4pairISt8functionIFbvEENSt7__cxx1112basic_stringIcSt11char_traitsIcESaIcEEEEC2IZ4mainEUlvE11_RA26_KcLb1EEEOT_OT0_;	.scl	3;	.type	32;	.endef
	.seh_proc	_ZNSt4pairISt8functionIFbvEENSt7__cxx1112basic_stringIcSt11char_traitsIcESaIcEEEEC2IZ4mainEUlvE11_RA26_KcLb1EEEOT_OT0_
_ZNSt4pairISt8functionIFbvEENSt7__cxx1112basic_stringIcSt11char_traitsIcESaIcEEEEC2IZ4mainEUlvE11_RA26_KcLb1EEEOT_OT0_:
.LFB3787:
	pushq	%rbp
	.seh_pushreg	%rbp
	pushq	%rbx
	.seh_pushreg	%rbx
	subq	$56, %rsp
	.seh_stackalloc	56
	leaq	48(%rsp), %rbp
	.seh_setframe	%rbp, 48
	.seh_endprologue
	movq	%rcx, 32(%rbp)
	movq	%rdx, 40(%rbp)
	movq	%r8, 48(%rbp)
	movq	32(%rbp), %rbx
	movq	40(%rbp), %rax
	movq	%rax, %rcx
	call	_ZSt7forwardIZ4mainEUlvE11_EOT_RNSt16remove_referenceIS1_E4typeE
	movq	%rax, %rdx
	movq	%rbx, %rcx
	call	_ZNSt8functionIFbvEEC1IZ4mainEUlvE11_vEEOT_
	movq	32(%rbp), %rax
	leaq	32(%rax), %rbx
	leaq	-1(%rbp), %rax
	movq	%rax, %rcx
	call	_ZNSaIcEC1Ev
	movq	48(%rbp), %rax
	movq	%rax, %rcx
	call	_ZSt7forwardIRA26_KcEOT_RNSt16remove_referenceIS3_E4typeE
	leaq	-1(%rbp), %rdx
	movq	%rdx, %r8
	movq	%rax, %rdx
	movq	%rbx, %rcx
.LEHB24:
	call	_ZNSt7__cxx1112basic_stringIcSt11char_traitsIcESaIcEEC1IS3_EEPKcRKS3_
.LEHE24:
	leaq	-1(%rbp), %rax
	movq	%rax, %rcx
	call	_ZNSaIcED1Ev
	jmp	.L159
.L158:
	movq	%rax, %rbx
	leaq	-1(%rbp), %rax
	movq	%rax, %rcx
	call	_ZNSaIcED1Ev
	movq	32(%rbp), %rax
	movq	%rax, %rcx
	call	_ZNSt8functionIFbvEED1Ev
	movq	%rbx, %rax
	movq	%rax, %rcx
.LEHB25:
	call	_Unwind_Resume
	nop
.LEHE25:
.L159:
	addq	$56, %rsp
	popq	%rbx
	popq	%rbp
	ret
	.seh_handler	__gxx_personality_seh0, @unwind, @except
	.seh_handlerdata
.LLSDA3787:
	.byte	0xff
	.byte	0xff
	.byte	0x1
	.uleb128 .LLSDACSE3787-.LLSDACSB3787
.LLSDACSB3787:
	.uleb128 .LEHB24-.LFB3787
	.uleb128 .LEHE24-.LEHB24
	.uleb128 .L158-.LFB3787
	.uleb128 0
	.uleb128 .LEHB25-.LFB3787
	.uleb128 .LEHE25-.LEHB25
	.uleb128 0
	.uleb128 0
.LLSDACSE3787:
	.text
	.seh_endproc
	.def	_ZNSt4pairISt8functionIFbvEENSt7__cxx1112basic_stringIcSt11char_traitsIcESaIcEEEEC1IZ4mainEUlvE11_RA26_KcLb1EEEOT_OT0_;	.scl	3;	.type	32;	.endef
	.set	_ZNSt4pairISt8functionIFbvEENSt7__cxx1112basic_stringIcSt11char_traitsIcESaIcEEEEC1IZ4mainEUlvE11_RA26_KcLb1EEEOT_OT0_,_ZNSt4pairISt8functionIFbvEENSt7__cxx1112basic_stringIcSt11char_traitsIcESaIcEEEEC2IZ4mainEUlvE11_RA26_KcLb1EEEOT_OT0_
	.align 2
	.def	_ZNSt4pairISt8functionIFbvEENSt7__cxx1112basic_stringIcSt11char_traitsIcESaIcEEEEC2IZ4mainEUlvE12_RA33_KcLb1EEEOT_OT0_;	.scl	3;	.type	32;	.endef
	.seh_proc	_ZNSt4pairISt8functionIFbvEENSt7__cxx1112basic_stringIcSt11char_traitsIcESaIcEEEEC2IZ4mainEUlvE12_RA33_KcLb1EEEOT_OT0_
_ZNSt4pairISt8functionIFbvEENSt7__cxx1112basic_stringIcSt11char_traitsIcESaIcEEEEC2IZ4mainEUlvE12_RA33_KcLb1EEEOT_OT0_:
.LFB3790:
	pushq	%rbp
	.seh_pushreg	%rbp
	pushq	%rbx
	.seh_pushreg	%rbx
	subq	$56, %rsp
	.seh_stackalloc	56
	leaq	48(%rsp), %rbp
	.seh_setframe	%rbp, 48
	.seh_endprologue
	movq	%rcx, 32(%rbp)
	movq	%rdx, 40(%rbp)
	movq	%r8, 48(%rbp)
	movq	32(%rbp), %rbx
	movq	40(%rbp), %rax
	movq	%rax, %rcx
	call	_ZSt7forwardIZ4mainEUlvE12_EOT_RNSt16remove_referenceIS1_E4typeE
	movq	%rax, %rdx
	movq	%rbx, %rcx
	call	_ZNSt8functionIFbvEEC1IZ4mainEUlvE12_vEEOT_
	movq	32(%rbp), %rax
	leaq	32(%rax), %rbx
	leaq	-1(%rbp), %rax
	movq	%rax, %rcx
	call	_ZNSaIcEC1Ev
	movq	48(%rbp), %rax
	movq	%rax, %rcx
	call	_ZSt7forwardIRA33_KcEOT_RNSt16remove_referenceIS3_E4typeE
	leaq	-1(%rbp), %rdx
	movq	%rdx, %r8
	movq	%rax, %rdx
	movq	%rbx, %rcx
.LEHB26:
	call	_ZNSt7__cxx1112basic_stringIcSt11char_traitsIcESaIcEEC1IS3_EEPKcRKS3_
.LEHE26:
	leaq	-1(%rbp), %rax
	movq	%rax, %rcx
	call	_ZNSaIcED1Ev
	jmp	.L163
.L162:
	movq	%rax, %rbx
	leaq	-1(%rbp), %rax
	movq	%rax, %rcx
	call	_ZNSaIcED1Ev
	movq	32(%rbp), %rax
	movq	%rax, %rcx
	call	_ZNSt8functionIFbvEED1Ev
	movq	%rbx, %rax
	movq	%rax, %rcx
.LEHB27:
	call	_Unwind_Resume
	nop
.LEHE27:
.L163:
	addq	$56, %rsp
	popq	%rbx
	popq	%rbp
	ret
	.seh_handler	__gxx_personality_seh0, @unwind, @except
	.seh_handlerdata
.LLSDA3790:
	.byte	0xff
	.byte	0xff
	.byte	0x1
	.uleb128 .LLSDACSE3790-.LLSDACSB3790
.LLSDACSB3790:
	.uleb128 .LEHB26-.LFB3790
	.uleb128 .LEHE26-.LEHB26
	.uleb128 .L162-.LFB3790
	.uleb128 0
	.uleb128 .LEHB27-.LFB3790
	.uleb128 .LEHE27-.LEHB27
	.uleb128 0
	.uleb128 0
.LLSDACSE3790:
	.text
	.seh_endproc
	.def	_ZNSt4pairISt8functionIFbvEENSt7__cxx1112basic_stringIcSt11char_traitsIcESaIcEEEEC1IZ4mainEUlvE12_RA33_KcLb1EEEOT_OT0_;	.scl	3;	.type	32;	.endef
	.set	_ZNSt4pairISt8functionIFbvEENSt7__cxx1112basic_stringIcSt11char_traitsIcESaIcEEEEC1IZ4mainEUlvE12_RA33_KcLb1EEEOT_OT0_,_ZNSt4pairISt8functionIFbvEENSt7__cxx1112basic_stringIcSt11char_traitsIcESaIcEEEEC2IZ4mainEUlvE12_RA33_KcLb1EEEOT_OT0_
	.align 2
	.def	_ZNSt4pairISt8functionIFbvEENSt7__cxx1112basic_stringIcSt11char_traitsIcESaIcEEEEC2IZ4mainEUlvE13_RA30_KcLb1EEEOT_OT0_;	.scl	3;	.type	32;	.endef
	.seh_proc	_ZNSt4pairISt8functionIFbvEENSt7__cxx1112basic_stringIcSt11char_traitsIcESaIcEEEEC2IZ4mainEUlvE13_RA30_KcLb1EEEOT_OT0_
_ZNSt4pairISt8functionIFbvEENSt7__cxx1112basic_stringIcSt11char_traitsIcESaIcEEEEC2IZ4mainEUlvE13_RA30_KcLb1EEEOT_OT0_:
.LFB3793:
	pushq	%rbp
	.seh_pushreg	%rbp
	pushq	%rbx
	.seh_pushreg	%rbx
	subq	$56, %rsp
	.seh_stackalloc	56
	leaq	48(%rsp), %rbp
	.seh_setframe	%rbp, 48
	.seh_endprologue
	movq	%rcx, 32(%rbp)
	movq	%rdx, 40(%rbp)
	movq	%r8, 48(%rbp)
	movq	32(%rbp), %rbx
	movq	40(%rbp), %rax
	movq	%rax, %rcx
	call	_ZSt7forwardIZ4mainEUlvE13_EOT_RNSt16remove_referenceIS1_E4typeE
	movq	%rax, %rdx
	movq	%rbx, %rcx
	call	_ZNSt8functionIFbvEEC1IZ4mainEUlvE13_vEEOT_
	movq	32(%rbp), %rax
	leaq	32(%rax), %rbx
	leaq	-1(%rbp), %rax
	movq	%rax, %rcx
	call	_ZNSaIcEC1Ev
	movq	48(%rbp), %rax
	movq	%rax, %rcx
	call	_ZSt7forwardIRA30_KcEOT_RNSt16remove_referenceIS3_E4typeE
	leaq	-1(%rbp), %rdx
	movq	%rdx, %r8
	movq	%rax, %rdx
	movq	%rbx, %rcx
.LEHB28:
	call	_ZNSt7__cxx1112basic_stringIcSt11char_traitsIcESaIcEEC1IS3_EEPKcRKS3_
.LEHE28:
	leaq	-1(%rbp), %rax
	movq	%rax, %rcx
	call	_ZNSaIcED1Ev
	jmp	.L167
.L166:
	movq	%rax, %rbx
	leaq	-1(%rbp), %rax
	movq	%rax, %rcx
	call	_ZNSaIcED1Ev
	movq	32(%rbp), %rax
	movq	%rax, %rcx
	call	_ZNSt8functionIFbvEED1Ev
	movq	%rbx, %rax
	movq	%rax, %rcx
.LEHB29:
	call	_Unwind_Resume
	nop
.LEHE29:
.L167:
	addq	$56, %rsp
	popq	%rbx
	popq	%rbp
	ret
	.seh_handler	__gxx_personality_seh0, @unwind, @except
	.seh_handlerdata
.LLSDA3793:
	.byte	0xff
	.byte	0xff
	.byte	0x1
	.uleb128 .LLSDACSE3793-.LLSDACSB3793
.LLSDACSB3793:
	.uleb128 .LEHB28-.LFB3793
	.uleb128 .LEHE28-.LEHB28
	.uleb128 .L166-.LFB3793
	.uleb128 0
	.uleb128 .LEHB29-.LFB3793
	.uleb128 .LEHE29-.LEHB29
	.uleb128 0
	.uleb128 0
.LLSDACSE3793:
	.text
	.seh_endproc
	.def	_ZNSt4pairISt8functionIFbvEENSt7__cxx1112basic_stringIcSt11char_traitsIcESaIcEEEEC1IZ4mainEUlvE13_RA30_KcLb1EEEOT_OT0_;	.scl	3;	.type	32;	.endef
	.set	_ZNSt4pairISt8functionIFbvEENSt7__cxx1112basic_stringIcSt11char_traitsIcESaIcEEEEC1IZ4mainEUlvE13_RA30_KcLb1EEEOT_OT0_,_ZNSt4pairISt8functionIFbvEENSt7__cxx1112basic_stringIcSt11char_traitsIcESaIcEEEEC2IZ4mainEUlvE13_RA30_KcLb1EEEOT_OT0_
	.align 2
	.def	_ZNSt4pairISt8functionIFbvEENSt7__cxx1112basic_stringIcSt11char_traitsIcESaIcEEEEC2IZ4mainEUlvE14_RA34_KcLb1EEEOT_OT0_;	.scl	3;	.type	32;	.endef
	.seh_proc	_ZNSt4pairISt8functionIFbvEENSt7__cxx1112basic_stringIcSt11char_traitsIcESaIcEEEEC2IZ4mainEUlvE14_RA34_KcLb1EEEOT_OT0_
_ZNSt4pairISt8functionIFbvEENSt7__cxx1112basic_stringIcSt11char_traitsIcESaIcEEEEC2IZ4mainEUlvE14_RA34_KcLb1EEEOT_OT0_:
.LFB3796:
	pushq	%rbp
	.seh_pushreg	%rbp
	pushq	%rbx
	.seh_pushreg	%rbx
	subq	$56, %rsp
	.seh_stackalloc	56
	leaq	48(%rsp), %rbp
	.seh_setframe	%rbp, 48
	.seh_endprologue
	movq	%rcx, 32(%rbp)
	movq	%rdx, 40(%rbp)
	movq	%r8, 48(%rbp)
	movq	32(%rbp), %rbx
	movq	40(%rbp), %rax
	movq	%rax, %rcx
	call	_ZSt7forwardIZ4mainEUlvE14_EOT_RNSt16remove_referenceIS1_E4typeE
	movq	%rax, %rdx
	movq	%rbx, %rcx
	call	_ZNSt8functionIFbvEEC1IZ4mainEUlvE14_vEEOT_
	movq	32(%rbp), %rax
	leaq	32(%rax), %rbx
	leaq	-1(%rbp), %rax
	movq	%rax, %rcx
	call	_ZNSaIcEC1Ev
	movq	48(%rbp), %rax
	movq	%rax, %rcx
	call	_ZSt7forwardIRA34_KcEOT_RNSt16remove_referenceIS3_E4typeE
	leaq	-1(%rbp), %rdx
	movq	%rdx, %r8
	movq	%rax, %rdx
	movq	%rbx, %rcx
.LEHB30:
	call	_ZNSt7__cxx1112basic_stringIcSt11char_traitsIcESaIcEEC1IS3_EEPKcRKS3_
.LEHE30:
	leaq	-1(%rbp), %rax
	movq	%rax, %rcx
	call	_ZNSaIcED1Ev
	jmp	.L171
.L170:
	movq	%rax, %rbx
	leaq	-1(%rbp), %rax
	movq	%rax, %rcx
	call	_ZNSaIcED1Ev
	movq	32(%rbp), %rax
	movq	%rax, %rcx
	call	_ZNSt8functionIFbvEED1Ev
	movq	%rbx, %rax
	movq	%rax, %rcx
.LEHB31:
	call	_Unwind_Resume
	nop
.LEHE31:
.L171:
	addq	$56, %rsp
	popq	%rbx
	popq	%rbp
	ret
	.seh_handler	__gxx_personality_seh0, @unwind, @except
	.seh_handlerdata
.LLSDA3796:
	.byte	0xff
	.byte	0xff
	.byte	0x1
	.uleb128 .LLSDACSE3796-.LLSDACSB3796
.LLSDACSB3796:
	.uleb128 .LEHB30-.LFB3796
	.uleb128 .LEHE30-.LEHB30
	.uleb128 .L170-.LFB3796
	.uleb128 0
	.uleb128 .LEHB31-.LFB3796
	.uleb128 .LEHE31-.LEHB31
	.uleb128 0
	.uleb128 0
.LLSDACSE3796:
	.text
	.seh_endproc
	.def	_ZNSt4pairISt8functionIFbvEENSt7__cxx1112basic_stringIcSt11char_traitsIcESaIcEEEEC1IZ4mainEUlvE14_RA34_KcLb1EEEOT_OT0_;	.scl	3;	.type	32;	.endef
	.set	_ZNSt4pairISt8functionIFbvEENSt7__cxx1112basic_stringIcSt11char_traitsIcESaIcEEEEC1IZ4mainEUlvE14_RA34_KcLb1EEEOT_OT0_,_ZNSt4pairISt8functionIFbvEENSt7__cxx1112basic_stringIcSt11char_traitsIcESaIcEEEEC2IZ4mainEUlvE14_RA34_KcLb1EEEOT_OT0_
	.align 2
	.def	_ZNSt4pairISt8functionIFbvEENSt7__cxx1112basic_stringIcSt11char_traitsIcESaIcEEEEC2IZ4mainEUlvE15_RA34_KcLb1EEEOT_OT0_;	.scl	3;	.type	32;	.endef
	.seh_proc	_ZNSt4pairISt8functionIFbvEENSt7__cxx1112basic_stringIcSt11char_traitsIcESaIcEEEEC2IZ4mainEUlvE15_RA34_KcLb1EEEOT_OT0_
_ZNSt4pairISt8functionIFbvEENSt7__cxx1112basic_stringIcSt11char_traitsIcESaIcEEEEC2IZ4mainEUlvE15_RA34_KcLb1EEEOT_OT0_:
.LFB3799:
	pushq	%rbp
	.seh_pushreg	%rbp
	pushq	%rbx
	.seh_pushreg	%rbx
	subq	$56, %rsp
	.seh_stackalloc	56
	leaq	48(%rsp), %rbp
	.seh_setframe	%rbp, 48
	.seh_endprologue
	movq	%rcx, 32(%rbp)
	movq	%rdx, 40(%rbp)
	movq	%r8, 48(%rbp)
	movq	32(%rbp), %rbx
	movq	40(%rbp), %rax
	movq	%rax, %rcx
	call	_ZSt7forwardIZ4mainEUlvE15_EOT_RNSt16remove_referenceIS1_E4typeE
	movq	%rax, %rdx
	movq	%rbx, %rcx
	call	_ZNSt8functionIFbvEEC1IZ4mainEUlvE15_vEEOT_
	movq	32(%rbp), %rax
	leaq	32(%rax), %rbx
	leaq	-1(%rbp), %rax
	movq	%rax, %rcx
	call	_ZNSaIcEC1Ev
	movq	48(%rbp), %rax
	movq	%rax, %rcx
	call	_ZSt7forwardIRA34_KcEOT_RNSt16remove_referenceIS3_E4typeE
	leaq	-1(%rbp), %rdx
	movq	%rdx, %r8
	movq	%rax, %rdx
	movq	%rbx, %rcx
.LEHB32:
	call	_ZNSt7__cxx1112basic_stringIcSt11char_traitsIcESaIcEEC1IS3_EEPKcRKS3_
.LEHE32:
	leaq	-1(%rbp), %rax
	movq	%rax, %rcx
	call	_ZNSaIcED1Ev
	jmp	.L175
.L174:
	movq	%rax, %rbx
	leaq	-1(%rbp), %rax
	movq	%rax, %rcx
	call	_ZNSaIcED1Ev
	movq	32(%rbp), %rax
	movq	%rax, %rcx
	call	_ZNSt8functionIFbvEED1Ev
	movq	%rbx, %rax
	movq	%rax, %rcx
.LEHB33:
	call	_Unwind_Resume
	nop
.LEHE33:
.L175:
	addq	$56, %rsp
	popq	%rbx
	popq	%rbp
	ret
	.seh_handler	__gxx_personality_seh0, @unwind, @except
	.seh_handlerdata
.LLSDA3799:
	.byte	0xff
	.byte	0xff
	.byte	0x1
	.uleb128 .LLSDACSE3799-.LLSDACSB3799
.LLSDACSB3799:
	.uleb128 .LEHB32-.LFB3799
	.uleb128 .LEHE32-.LEHB32
	.uleb128 .L174-.LFB3799
	.uleb128 0
	.uleb128 .LEHB33-.LFB3799
	.uleb128 .LEHE33-.LEHB33
	.uleb128 0
	.uleb128 0
.LLSDACSE3799:
	.text
	.seh_endproc
	.def	_ZNSt4pairISt8functionIFbvEENSt7__cxx1112basic_stringIcSt11char_traitsIcESaIcEEEEC1IZ4mainEUlvE15_RA34_KcLb1EEEOT_OT0_;	.scl	3;	.type	32;	.endef
	.set	_ZNSt4pairISt8functionIFbvEENSt7__cxx1112basic_stringIcSt11char_traitsIcESaIcEEEEC1IZ4mainEUlvE15_RA34_KcLb1EEEOT_OT0_,_ZNSt4pairISt8functionIFbvEENSt7__cxx1112basic_stringIcSt11char_traitsIcESaIcEEEEC2IZ4mainEUlvE15_RA34_KcLb1EEEOT_OT0_
	.align 2
	.def	_ZNSt4pairISt8functionIFbvEENSt7__cxx1112basic_stringIcSt11char_traitsIcESaIcEEEEC2IZ4mainEUlvE16_RA30_KcLb1EEEOT_OT0_;	.scl	3;	.type	32;	.endef
	.seh_proc	_ZNSt4pairISt8functionIFbvEENSt7__cxx1112basic_stringIcSt11char_traitsIcESaIcEEEEC2IZ4mainEUlvE16_RA30_KcLb1EEEOT_OT0_
_ZNSt4pairISt8functionIFbvEENSt7__cxx1112basic_stringIcSt11char_traitsIcESaIcEEEEC2IZ4mainEUlvE16_RA30_KcLb1EEEOT_OT0_:
.LFB3802:
	pushq	%rbp
	.seh_pushreg	%rbp
	pushq	%rbx
	.seh_pushreg	%rbx
	subq	$56, %rsp
	.seh_stackalloc	56
	leaq	48(%rsp), %rbp
	.seh_setframe	%rbp, 48
	.seh_endprologue
	movq	%rcx, 32(%rbp)
	movq	%rdx, 40(%rbp)
	movq	%r8, 48(%rbp)
	movq	32(%rbp), %rbx
	movq	40(%rbp), %rax
	movq	%rax, %rcx
	call	_ZSt7forwardIZ4mainEUlvE16_EOT_RNSt16remove_referenceIS1_E4typeE
	movq	%rax, %rdx
	movq	%rbx, %rcx
	call	_ZNSt8functionIFbvEEC1IZ4mainEUlvE16_vEEOT_
	movq	32(%rbp), %rax
	leaq	32(%rax), %rbx
	leaq	-1(%rbp), %rax
	movq	%rax, %rcx
	call	_ZNSaIcEC1Ev
	movq	48(%rbp), %rax
	movq	%rax, %rcx
	call	_ZSt7forwardIRA30_KcEOT_RNSt16remove_referenceIS3_E4typeE
	leaq	-1(%rbp), %rdx
	movq	%rdx, %r8
	movq	%rax, %rdx
	movq	%rbx, %rcx
.LEHB34:
	call	_ZNSt7__cxx1112basic_stringIcSt11char_traitsIcESaIcEEC1IS3_EEPKcRKS3_
.LEHE34:
	leaq	-1(%rbp), %rax
	movq	%rax, %rcx
	call	_ZNSaIcED1Ev
	jmp	.L179
.L178:
	movq	%rax, %rbx
	leaq	-1(%rbp), %rax
	movq	%rax, %rcx
	call	_ZNSaIcED1Ev
	movq	32(%rbp), %rax
	movq	%rax, %rcx
	call	_ZNSt8functionIFbvEED1Ev
	movq	%rbx, %rax
	movq	%rax, %rcx
.LEHB35:
	call	_Unwind_Resume
	nop
.LEHE35:
.L179:
	addq	$56, %rsp
	popq	%rbx
	popq	%rbp
	ret
	.seh_handler	__gxx_personality_seh0, @unwind, @except
	.seh_handlerdata
.LLSDA3802:
	.byte	0xff
	.byte	0xff
	.byte	0x1
	.uleb128 .LLSDACSE3802-.LLSDACSB3802
.LLSDACSB3802:
	.uleb128 .LEHB34-.LFB3802
	.uleb128 .LEHE34-.LEHB34
	.uleb128 .L178-.LFB3802
	.uleb128 0
	.uleb128 .LEHB35-.LFB3802
	.uleb128 .LEHE35-.LEHB35
	.uleb128 0
	.uleb128 0
.LLSDACSE3802:
	.text
	.seh_endproc
	.def	_ZNSt4pairISt8functionIFbvEENSt7__cxx1112basic_stringIcSt11char_traitsIcESaIcEEEEC1IZ4mainEUlvE16_RA30_KcLb1EEEOT_OT0_;	.scl	3;	.type	32;	.endef
	.set	_ZNSt4pairISt8functionIFbvEENSt7__cxx1112basic_stringIcSt11char_traitsIcESaIcEEEEC1IZ4mainEUlvE16_RA30_KcLb1EEEOT_OT0_,_ZNSt4pairISt8functionIFbvEENSt7__cxx1112basic_stringIcSt11char_traitsIcESaIcEEEEC2IZ4mainEUlvE16_RA30_KcLb1EEEOT_OT0_
	.align 2
	.def	_ZNSt4pairISt8functionIFbvEENSt7__cxx1112basic_stringIcSt11char_traitsIcESaIcEEEEC2IZ4mainEUlvE17_RA28_KcLb1EEEOT_OT0_;	.scl	3;	.type	32;	.endef
	.seh_proc	_ZNSt4pairISt8functionIFbvEENSt7__cxx1112basic_stringIcSt11char_traitsIcESaIcEEEEC2IZ4mainEUlvE17_RA28_KcLb1EEEOT_OT0_
_ZNSt4pairISt8functionIFbvEENSt7__cxx1112basic_stringIcSt11char_traitsIcESaIcEEEEC2IZ4mainEUlvE17_RA28_KcLb1EEEOT_OT0_:
.LFB3805:
	pushq	%rbp
	.seh_pushreg	%rbp
	pushq	%rbx
	.seh_pushreg	%rbx
	subq	$56, %rsp
	.seh_stackalloc	56
	leaq	48(%rsp), %rbp
	.seh_setframe	%rbp, 48
	.seh_endprologue
	movq	%rcx, 32(%rbp)
	movq	%rdx, 40(%rbp)
	movq	%r8, 48(%rbp)
	movq	32(%rbp), %rbx
	movq	40(%rbp), %rax
	movq	%rax, %rcx
	call	_ZSt7forwardIZ4mainEUlvE17_EOT_RNSt16remove_referenceIS1_E4typeE
	movq	%rax, %rdx
	movq	%rbx, %rcx
	call	_ZNSt8functionIFbvEEC1IZ4mainEUlvE17_vEEOT_
	movq	32(%rbp), %rax
	leaq	32(%rax), %rbx
	leaq	-1(%rbp), %rax
	movq	%rax, %rcx
	call	_ZNSaIcEC1Ev
	movq	48(%rbp), %rax
	movq	%rax, %rcx
	call	_ZSt7forwardIRA28_KcEOT_RNSt16remove_referenceIS3_E4typeE
	leaq	-1(%rbp), %rdx
	movq	%rdx, %r8
	movq	%rax, %rdx
	movq	%rbx, %rcx
.LEHB36:
	call	_ZNSt7__cxx1112basic_stringIcSt11char_traitsIcESaIcEEC1IS3_EEPKcRKS3_
.LEHE36:
	leaq	-1(%rbp), %rax
	movq	%rax, %rcx
	call	_ZNSaIcED1Ev
	jmp	.L183
.L182:
	movq	%rax, %rbx
	leaq	-1(%rbp), %rax
	movq	%rax, %rcx
	call	_ZNSaIcED1Ev
	movq	32(%rbp), %rax
	movq	%rax, %rcx
	call	_ZNSt8functionIFbvEED1Ev
	movq	%rbx, %rax
	movq	%rax, %rcx
.LEHB37:
	call	_Unwind_Resume
	nop
.LEHE37:
.L183:
	addq	$56, %rsp
	popq	%rbx
	popq	%rbp
	ret
	.seh_handler	__gxx_personality_seh0, @unwind, @except
	.seh_handlerdata
.LLSDA3805:
	.byte	0xff
	.byte	0xff
	.byte	0x1
	.uleb128 .LLSDACSE3805-.LLSDACSB3805
.LLSDACSB3805:
	.uleb128 .LEHB36-.LFB3805
	.uleb128 .LEHE36-.LEHB36
	.uleb128 .L182-.LFB3805
	.uleb128 0
	.uleb128 .LEHB37-.LFB3805
	.uleb128 .LEHE37-.LEHB37
	.uleb128 0
	.uleb128 0
.LLSDACSE3805:
	.text
	.seh_endproc
	.def	_ZNSt4pairISt8functionIFbvEENSt7__cxx1112basic_stringIcSt11char_traitsIcESaIcEEEEC1IZ4mainEUlvE17_RA28_KcLb1EEEOT_OT0_;	.scl	3;	.type	32;	.endef
	.set	_ZNSt4pairISt8functionIFbvEENSt7__cxx1112basic_stringIcSt11char_traitsIcESaIcEEEEC1IZ4mainEUlvE17_RA28_KcLb1EEEOT_OT0_,_ZNSt4pairISt8functionIFbvEENSt7__cxx1112basic_stringIcSt11char_traitsIcESaIcEEEEC2IZ4mainEUlvE17_RA28_KcLb1EEEOT_OT0_
	.align 2
	.def	_ZNSt4pairISt8functionIFbvEENSt7__cxx1112basic_stringIcSt11char_traitsIcESaIcEEEEC2IZ4mainEUlvE18_RA29_KcLb1EEEOT_OT0_;	.scl	3;	.type	32;	.endef
	.seh_proc	_ZNSt4pairISt8functionIFbvEENSt7__cxx1112basic_stringIcSt11char_traitsIcESaIcEEEEC2IZ4mainEUlvE18_RA29_KcLb1EEEOT_OT0_
_ZNSt4pairISt8functionIFbvEENSt7__cxx1112basic_stringIcSt11char_traitsIcESaIcEEEEC2IZ4mainEUlvE18_RA29_KcLb1EEEOT_OT0_:
.LFB3808:
	pushq	%rbp
	.seh_pushreg	%rbp
	pushq	%rbx
	.seh_pushreg	%rbx
	subq	$56, %rsp
	.seh_stackalloc	56
	leaq	48(%rsp), %rbp
	.seh_setframe	%rbp, 48
	.seh_endprologue
	movq	%rcx, 32(%rbp)
	movq	%rdx, 40(%rbp)
	movq	%r8, 48(%rbp)
	movq	32(%rbp), %rbx
	movq	40(%rbp), %rax
	movq	%rax, %rcx
	call	_ZSt7forwardIZ4mainEUlvE18_EOT_RNSt16remove_referenceIS1_E4typeE
	movq	%rax, %rdx
	movq	%rbx, %rcx
	call	_ZNSt8functionIFbvEEC1IZ4mainEUlvE18_vEEOT_
	movq	32(%rbp), %rax
	leaq	32(%rax), %rbx
	leaq	-1(%rbp), %rax
	movq	%rax, %rcx
	call	_ZNSaIcEC1Ev
	movq	48(%rbp), %rax
	movq	%rax, %rcx
	call	_ZSt7forwardIRA29_KcEOT_RNSt16remove_referenceIS3_E4typeE
	leaq	-1(%rbp), %rdx
	movq	%rdx, %r8
	movq	%rax, %rdx
	movq	%rbx, %rcx
.LEHB38:
	call	_ZNSt7__cxx1112basic_stringIcSt11char_traitsIcESaIcEEC1IS3_EEPKcRKS3_
.LEHE38:
	leaq	-1(%rbp), %rax
	movq	%rax, %rcx
	call	_ZNSaIcED1Ev
	jmp	.L187
.L186:
	movq	%rax, %rbx
	leaq	-1(%rbp), %rax
	movq	%rax, %rcx
	call	_ZNSaIcED1Ev
	movq	32(%rbp), %rax
	movq	%rax, %rcx
	call	_ZNSt8functionIFbvEED1Ev
	movq	%rbx, %rax
	movq	%rax, %rcx
.LEHB39:
	call	_Unwind_Resume
	nop
.LEHE39:
.L187:
	addq	$56, %rsp
	popq	%rbx
	popq	%rbp
	ret
	.seh_handler	__gxx_personality_seh0, @unwind, @except
	.seh_handlerdata
.LLSDA3808:
	.byte	0xff
	.byte	0xff
	.byte	0x1
	.uleb128 .LLSDACSE3808-.LLSDACSB3808
.LLSDACSB3808:
	.uleb128 .LEHB38-.LFB3808
	.uleb128 .LEHE38-.LEHB38
	.uleb128 .L186-.LFB3808
	.uleb128 0
	.uleb128 .LEHB39-.LFB3808
	.uleb128 .LEHE39-.LEHB39
	.uleb128 0
	.uleb128 0
.LLSDACSE3808:
	.text
	.seh_endproc
	.def	_ZNSt4pairISt8functionIFbvEENSt7__cxx1112basic_stringIcSt11char_traitsIcESaIcEEEEC1IZ4mainEUlvE18_RA29_KcLb1EEEOT_OT0_;	.scl	3;	.type	32;	.endef
	.set	_ZNSt4pairISt8functionIFbvEENSt7__cxx1112basic_stringIcSt11char_traitsIcESaIcEEEEC1IZ4mainEUlvE18_RA29_KcLb1EEEOT_OT0_,_ZNSt4pairISt8functionIFbvEENSt7__cxx1112basic_stringIcSt11char_traitsIcESaIcEEEEC2IZ4mainEUlvE18_RA29_KcLb1EEEOT_OT0_
	.align 2
	.def	_ZNSt4pairISt8functionIFbvEENSt7__cxx1112basic_stringIcSt11char_traitsIcESaIcEEEEC2IZ4mainEUlvE19_RA23_KcLb1EEEOT_OT0_;	.scl	3;	.type	32;	.endef
	.seh_proc	_ZNSt4pairISt8functionIFbvEENSt7__cxx1112basic_stringIcSt11char_traitsIcESaIcEEEEC2IZ4mainEUlvE19_RA23_KcLb1EEEOT_OT0_
_ZNSt4pairISt8functionIFbvEENSt7__cxx1112basic_stringIcSt11char_traitsIcESaIcEEEEC2IZ4mainEUlvE19_RA23_KcLb1EEEOT_OT0_:
.LFB3811:
	pushq	%rbp
	.seh_pushreg	%rbp
	pushq	%rbx
	.seh_pushreg	%rbx
	subq	$56, %rsp
	.seh_stackalloc	56
	leaq	48(%rsp), %rbp
	.seh_setframe	%rbp, 48
	.seh_endprologue
	movq	%rcx, 32(%rbp)
	movq	%rdx, 40(%rbp)
	movq	%r8, 48(%rbp)
	movq	32(%rbp), %rbx
	movq	40(%rbp), %rax
	movq	%rax, %rcx
	call	_ZSt7forwardIZ4mainEUlvE19_EOT_RNSt16remove_referenceIS1_E4typeE
	movq	%rax, %rdx
	movq	%rbx, %rcx
	call	_ZNSt8functionIFbvEEC1IZ4mainEUlvE19_vEEOT_
	movq	32(%rbp), %rax
	leaq	32(%rax), %rbx
	leaq	-1(%rbp), %rax
	movq	%rax, %rcx
	call	_ZNSaIcEC1Ev
	movq	48(%rbp), %rax
	movq	%rax, %rcx
	call	_ZSt7forwardIRA23_KcEOT_RNSt16remove_referenceIS3_E4typeE
	leaq	-1(%rbp), %rdx
	movq	%rdx, %r8
	movq	%rax, %rdx
	movq	%rbx, %rcx
.LEHB40:
	call	_ZNSt7__cxx1112basic_stringIcSt11char_traitsIcESaIcEEC1IS3_EEPKcRKS3_
.LEHE40:
	leaq	-1(%rbp), %rax
	movq	%rax, %rcx
	call	_ZNSaIcED1Ev
	jmp	.L191
.L190:
	movq	%rax, %rbx
	leaq	-1(%rbp), %rax
	movq	%rax, %rcx
	call	_ZNSaIcED1Ev
	movq	32(%rbp), %rax
	movq	%rax, %rcx
	call	_ZNSt8functionIFbvEED1Ev
	movq	%rbx, %rax
	movq	%rax, %rcx
.LEHB41:
	call	_Unwind_Resume
	nop
.LEHE41:
.L191:
	addq	$56, %rsp
	popq	%rbx
	popq	%rbp
	ret
	.seh_handler	__gxx_personality_seh0, @unwind, @except
	.seh_handlerdata
.LLSDA3811:
	.byte	0xff
	.byte	0xff
	.byte	0x1
	.uleb128 .LLSDACSE3811-.LLSDACSB3811
.LLSDACSB3811:
	.uleb128 .LEHB40-.LFB3811
	.uleb128 .LEHE40-.LEHB40
	.uleb128 .L190-.LFB3811
	.uleb128 0
	.uleb128 .LEHB41-.LFB3811
	.uleb128 .LEHE41-.LEHB41
	.uleb128 0
	.uleb128 0
.LLSDACSE3811:
	.text
	.seh_endproc
	.def	_ZNSt4pairISt8functionIFbvEENSt7__cxx1112basic_stringIcSt11char_traitsIcESaIcEEEEC1IZ4mainEUlvE19_RA23_KcLb1EEEOT_OT0_;	.scl	3;	.type	32;	.endef
	.set	_ZNSt4pairISt8functionIFbvEENSt7__cxx1112basic_stringIcSt11char_traitsIcESaIcEEEEC1IZ4mainEUlvE19_RA23_KcLb1EEEOT_OT0_,_ZNSt4pairISt8functionIFbvEENSt7__cxx1112basic_stringIcSt11char_traitsIcESaIcEEEEC2IZ4mainEUlvE19_RA23_KcLb1EEEOT_OT0_
	.align 2
	.def	_ZNSt4pairISt8functionIFbvEENSt7__cxx1112basic_stringIcSt11char_traitsIcESaIcEEEEC2IZ4mainEUlvE20_RA26_KcLb1EEEOT_OT0_;	.scl	3;	.type	32;	.endef
	.seh_proc	_ZNSt4pairISt8functionIFbvEENSt7__cxx1112basic_stringIcSt11char_traitsIcESaIcEEEEC2IZ4mainEUlvE20_RA26_KcLb1EEEOT_OT0_
_ZNSt4pairISt8functionIFbvEENSt7__cxx1112basic_stringIcSt11char_traitsIcESaIcEEEEC2IZ4mainEUlvE20_RA26_KcLb1EEEOT_OT0_:
.LFB3814:
	pushq	%rbp
	.seh_pushreg	%rbp
	pushq	%rbx
	.seh_pushreg	%rbx
	subq	$56, %rsp
	.seh_stackalloc	56
	leaq	48(%rsp), %rbp
	.seh_setframe	%rbp, 48
	.seh_endprologue
	movq	%rcx, 32(%rbp)
	movq	%rdx, 40(%rbp)
	movq	%r8, 48(%rbp)
	movq	32(%rbp), %rbx
	movq	40(%rbp), %rax
	movq	%rax, %rcx
	call	_ZSt7forwardIZ4mainEUlvE20_EOT_RNSt16remove_referenceIS1_E4typeE
	movq	%rax, %rdx
	movq	%rbx, %rcx
	call	_ZNSt8functionIFbvEEC1IZ4mainEUlvE20_vEEOT_
	movq	32(%rbp), %rax
	leaq	32(%rax), %rbx
	leaq	-1(%rbp), %rax
	movq	%rax, %rcx
	call	_ZNSaIcEC1Ev
	movq	48(%rbp), %rax
	movq	%rax, %rcx
	call	_ZSt7forwardIRA26_KcEOT_RNSt16remove_referenceIS3_E4typeE
	leaq	-1(%rbp), %rdx
	movq	%rdx, %r8
	movq	%rax, %rdx
	movq	%rbx, %rcx
.LEHB42:
	call	_ZNSt7__cxx1112basic_stringIcSt11char_traitsIcESaIcEEC1IS3_EEPKcRKS3_
.LEHE42:
	leaq	-1(%rbp), %rax
	movq	%rax, %rcx
	call	_ZNSaIcED1Ev
	jmp	.L195
.L194:
	movq	%rax, %rbx
	leaq	-1(%rbp), %rax
	movq	%rax, %rcx
	call	_ZNSaIcED1Ev
	movq	32(%rbp), %rax
	movq	%rax, %rcx
	call	_ZNSt8functionIFbvEED1Ev
	movq	%rbx, %rax
	movq	%rax, %rcx
.LEHB43:
	call	_Unwind_Resume
	nop
.LEHE43:
.L195:
	addq	$56, %rsp
	popq	%rbx
	popq	%rbp
	ret
	.seh_handler	__gxx_personality_seh0, @unwind, @except
	.seh_handlerdata
.LLSDA3814:
	.byte	0xff
	.byte	0xff
	.byte	0x1
	.uleb128 .LLSDACSE3814-.LLSDACSB3814
.LLSDACSB3814:
	.uleb128 .LEHB42-.LFB3814
	.uleb128 .LEHE42-.LEHB42
	.uleb128 .L194-.LFB3814
	.uleb128 0
	.uleb128 .LEHB43-.LFB3814
	.uleb128 .LEHE43-.LEHB43
	.uleb128 0
	.uleb128 0
.LLSDACSE3814:
	.text
	.seh_endproc
	.def	_ZNSt4pairISt8functionIFbvEENSt7__cxx1112basic_stringIcSt11char_traitsIcESaIcEEEEC1IZ4mainEUlvE20_RA26_KcLb1EEEOT_OT0_;	.scl	3;	.type	32;	.endef
	.set	_ZNSt4pairISt8functionIFbvEENSt7__cxx1112basic_stringIcSt11char_traitsIcESaIcEEEEC1IZ4mainEUlvE20_RA26_KcLb1EEEOT_OT0_,_ZNSt4pairISt8functionIFbvEENSt7__cxx1112basic_stringIcSt11char_traitsIcESaIcEEEEC2IZ4mainEUlvE20_RA26_KcLb1EEEOT_OT0_
	.align 2
	.def	_ZNSt4pairISt8functionIFbvEENSt7__cxx1112basic_stringIcSt11char_traitsIcESaIcEEEEC2IZ4mainEUlvE21_RA24_KcLb1EEEOT_OT0_;	.scl	3;	.type	32;	.endef
	.seh_proc	_ZNSt4pairISt8functionIFbvEENSt7__cxx1112basic_stringIcSt11char_traitsIcESaIcEEEEC2IZ4mainEUlvE21_RA24_KcLb1EEEOT_OT0_
_ZNSt4pairISt8functionIFbvEENSt7__cxx1112basic_stringIcSt11char_traitsIcESaIcEEEEC2IZ4mainEUlvE21_RA24_KcLb1EEEOT_OT0_:
.LFB3817:
	pushq	%rbp
	.seh_pushreg	%rbp
	pushq	%rbx
	.seh_pushreg	%rbx
	subq	$56, %rsp
	.seh_stackalloc	56
	leaq	48(%rsp), %rbp
	.seh_setframe	%rbp, 48
	.seh_endprologue
	movq	%rcx, 32(%rbp)
	movq	%rdx, 40(%rbp)
	movq	%r8, 48(%rbp)
	movq	32(%rbp), %rbx
	movq	40(%rbp), %rax
	movq	%rax, %rcx
	call	_ZSt7forwardIZ4mainEUlvE21_EOT_RNSt16remove_referenceIS1_E4typeE
	movq	%rax, %rdx
	movq	%rbx, %rcx
	call	_ZNSt8functionIFbvEEC1IZ4mainEUlvE21_vEEOT_
	movq	32(%rbp), %rax
	leaq	32(%rax), %rbx
	leaq	-1(%rbp), %rax
	movq	%rax, %rcx
	call	_ZNSaIcEC1Ev
	movq	48(%rbp), %rax
	movq	%rax, %rcx
	call	_ZSt7forwardIRA24_KcEOT_RNSt16remove_referenceIS3_E4typeE
	leaq	-1(%rbp), %rdx
	movq	%rdx, %r8
	movq	%rax, %rdx
	movq	%rbx, %rcx
.LEHB44:
	call	_ZNSt7__cxx1112basic_stringIcSt11char_traitsIcESaIcEEC1IS3_EEPKcRKS3_
.LEHE44:
	leaq	-1(%rbp), %rax
	movq	%rax, %rcx
	call	_ZNSaIcED1Ev
	jmp	.L199
.L198:
	movq	%rax, %rbx
	leaq	-1(%rbp), %rax
	movq	%rax, %rcx
	call	_ZNSaIcED1Ev
	movq	32(%rbp), %rax
	movq	%rax, %rcx
	call	_ZNSt8functionIFbvEED1Ev
	movq	%rbx, %rax
	movq	%rax, %rcx
.LEHB45:
	call	_Unwind_Resume
	nop
.LEHE45:
.L199:
	addq	$56, %rsp
	popq	%rbx
	popq	%rbp
	ret
	.seh_handler	__gxx_personality_seh0, @unwind, @except
	.seh_handlerdata
.LLSDA3817:
	.byte	0xff
	.byte	0xff
	.byte	0x1
	.uleb128 .LLSDACSE3817-.LLSDACSB3817
.LLSDACSB3817:
	.uleb128 .LEHB44-.LFB3817
	.uleb128 .LEHE44-.LEHB44
	.uleb128 .L198-.LFB3817
	.uleb128 0
	.uleb128 .LEHB45-.LFB3817
	.uleb128 .LEHE45-.LEHB45
	.uleb128 0
	.uleb128 0
.LLSDACSE3817:
	.text
	.seh_endproc
	.def	_ZNSt4pairISt8functionIFbvEENSt7__cxx1112basic_stringIcSt11char_traitsIcESaIcEEEEC1IZ4mainEUlvE21_RA24_KcLb1EEEOT_OT0_;	.scl	3;	.type	32;	.endef
	.set	_ZNSt4pairISt8functionIFbvEENSt7__cxx1112basic_stringIcSt11char_traitsIcESaIcEEEEC1IZ4mainEUlvE21_RA24_KcLb1EEEOT_OT0_,_ZNSt4pairISt8functionIFbvEENSt7__cxx1112basic_stringIcSt11char_traitsIcESaIcEEEEC2IZ4mainEUlvE21_RA24_KcLb1EEEOT_OT0_
	.align 2
	.def	_ZNSt4pairISt8functionIFbvEENSt7__cxx1112basic_stringIcSt11char_traitsIcESaIcEEEEC2IZ4mainEUlvE22_RA29_KcLb1EEEOT_OT0_;	.scl	3;	.type	32;	.endef
	.seh_proc	_ZNSt4pairISt8functionIFbvEENSt7__cxx1112basic_stringIcSt11char_traitsIcESaIcEEEEC2IZ4mainEUlvE22_RA29_KcLb1EEEOT_OT0_
_ZNSt4pairISt8functionIFbvEENSt7__cxx1112basic_stringIcSt11char_traitsIcESaIcEEEEC2IZ4mainEUlvE22_RA29_KcLb1EEEOT_OT0_:
.LFB3820:
	pushq	%rbp
	.seh_pushreg	%rbp
	pushq	%rbx
	.seh_pushreg	%rbx
	subq	$56, %rsp
	.seh_stackalloc	56
	leaq	48(%rsp), %rbp
	.seh_setframe	%rbp, 48
	.seh_endprologue
	movq	%rcx, 32(%rbp)
	movq	%rdx, 40(%rbp)
	movq	%r8, 48(%rbp)
	movq	32(%rbp), %rbx
	movq	40(%rbp), %rax
	movq	%rax, %rcx
	call	_ZSt7forwardIZ4mainEUlvE22_EOT_RNSt16remove_referenceIS1_E4typeE
	movq	%rax, %rdx
	movq	%rbx, %rcx
	call	_ZNSt8functionIFbvEEC1IZ4mainEUlvE22_vEEOT_
	movq	32(%rbp), %rax
	leaq	32(%rax), %rbx
	leaq	-1(%rbp), %rax
	movq	%rax, %rcx
	call	_ZNSaIcEC1Ev
	movq	48(%rbp), %rax
	movq	%rax, %rcx
	call	_ZSt7forwardIRA29_KcEOT_RNSt16remove_referenceIS3_E4typeE
	leaq	-1(%rbp), %rdx
	movq	%rdx, %r8
	movq	%rax, %rdx
	movq	%rbx, %rcx
.LEHB46:
	call	_ZNSt7__cxx1112basic_stringIcSt11char_traitsIcESaIcEEC1IS3_EEPKcRKS3_
.LEHE46:
	leaq	-1(%rbp), %rax
	movq	%rax, %rcx
	call	_ZNSaIcED1Ev
	jmp	.L203
.L202:
	movq	%rax, %rbx
	leaq	-1(%rbp), %rax
	movq	%rax, %rcx
	call	_ZNSaIcED1Ev
	movq	32(%rbp), %rax
	movq	%rax, %rcx
	call	_ZNSt8functionIFbvEED1Ev
	movq	%rbx, %rax
	movq	%rax, %rcx
.LEHB47:
	call	_Unwind_Resume
	nop
.LEHE47:
.L203:
	addq	$56, %rsp
	popq	%rbx
	popq	%rbp
	ret
	.seh_handler	__gxx_personality_seh0, @unwind, @except
	.seh_handlerdata
.LLSDA3820:
	.byte	0xff
	.byte	0xff
	.byte	0x1
	.uleb128 .LLSDACSE3820-.LLSDACSB3820
.LLSDACSB3820:
	.uleb128 .LEHB46-.LFB3820
	.uleb128 .LEHE46-.LEHB46
	.uleb128 .L202-.LFB3820
	.uleb128 0
	.uleb128 .LEHB47-.LFB3820
	.uleb128 .LEHE47-.LEHB47
	.uleb128 0
	.uleb128 0
.LLSDACSE3820:
	.text
	.seh_endproc
	.def	_ZNSt4pairISt8functionIFbvEENSt7__cxx1112basic_stringIcSt11char_traitsIcESaIcEEEEC1IZ4mainEUlvE22_RA29_KcLb1EEEOT_OT0_;	.scl	3;	.type	32;	.endef
	.set	_ZNSt4pairISt8functionIFbvEENSt7__cxx1112basic_stringIcSt11char_traitsIcESaIcEEEEC1IZ4mainEUlvE22_RA29_KcLb1EEEOT_OT0_,_ZNSt4pairISt8functionIFbvEENSt7__cxx1112basic_stringIcSt11char_traitsIcESaIcEEEEC2IZ4mainEUlvE22_RA29_KcLb1EEEOT_OT0_
	.align 2
	.def	_ZNSt4pairISt8functionIFbvEENSt7__cxx1112basic_stringIcSt11char_traitsIcESaIcEEEEC2IZ4mainEUlvE23_RA23_KcLb1EEEOT_OT0_;	.scl	3;	.type	32;	.endef
	.seh_proc	_ZNSt4pairISt8functionIFbvEENSt7__cxx1112basic_stringIcSt11char_traitsIcESaIcEEEEC2IZ4mainEUlvE23_RA23_KcLb1EEEOT_OT0_
_ZNSt4pairISt8functionIFbvEENSt7__cxx1112basic_stringIcSt11char_traitsIcESaIcEEEEC2IZ4mainEUlvE23_RA23_KcLb1EEEOT_OT0_:
.LFB3823:
	pushq	%rbp
	.seh_pushreg	%rbp
	pushq	%rbx
	.seh_pushreg	%rbx
	subq	$56, %rsp
	.seh_stackalloc	56
	leaq	48(%rsp), %rbp
	.seh_setframe	%rbp, 48
	.seh_endprologue
	movq	%rcx, 32(%rbp)
	movq	%rdx, 40(%rbp)
	movq	%r8, 48(%rbp)
	movq	32(%rbp), %rbx
	movq	40(%rbp), %rax
	movq	%rax, %rcx
	call	_ZSt7forwardIZ4mainEUlvE23_EOT_RNSt16remove_referenceIS1_E4typeE
	movq	%rax, %rdx
	movq	%rbx, %rcx
	call	_ZNSt8functionIFbvEEC1IZ4mainEUlvE23_vEEOT_
	movq	32(%rbp), %rax
	leaq	32(%rax), %rbx
	leaq	-1(%rbp), %rax
	movq	%rax, %rcx
	call	_ZNSaIcEC1Ev
	movq	48(%rbp), %rax
	movq	%rax, %rcx
	call	_ZSt7forwardIRA23_KcEOT_RNSt16remove_referenceIS3_E4typeE
	leaq	-1(%rbp), %rdx
	movq	%rdx, %r8
	movq	%rax, %rdx
	movq	%rbx, %rcx
.LEHB48:
	call	_ZNSt7__cxx1112basic_stringIcSt11char_traitsIcESaIcEEC1IS3_EEPKcRKS3_
.LEHE48:
	leaq	-1(%rbp), %rax
	movq	%rax, %rcx
	call	_ZNSaIcED1Ev
	jmp	.L207
.L206:
	movq	%rax, %rbx
	leaq	-1(%rbp), %rax
	movq	%rax, %rcx
	call	_ZNSaIcED1Ev
	movq	32(%rbp), %rax
	movq	%rax, %rcx
	call	_ZNSt8functionIFbvEED1Ev
	movq	%rbx, %rax
	movq	%rax, %rcx
.LEHB49:
	call	_Unwind_Resume
	nop
.LEHE49:
.L207:
	addq	$56, %rsp
	popq	%rbx
	popq	%rbp
	ret
	.seh_handler	__gxx_personality_seh0, @unwind, @except
	.seh_handlerdata
.LLSDA3823:
	.byte	0xff
	.byte	0xff
	.byte	0x1
	.uleb128 .LLSDACSE3823-.LLSDACSB3823
.LLSDACSB3823:
	.uleb128 .LEHB48-.LFB3823
	.uleb128 .LEHE48-.LEHB48
	.uleb128 .L206-.LFB3823
	.uleb128 0
	.uleb128 .LEHB49-.LFB3823
	.uleb128 .LEHE49-.LEHB49
	.uleb128 0
	.uleb128 0
.LLSDACSE3823:
	.text
	.seh_endproc
	.def	_ZNSt4pairISt8functionIFbvEENSt7__cxx1112basic_stringIcSt11char_traitsIcESaIcEEEEC1IZ4mainEUlvE23_RA23_KcLb1EEEOT_OT0_;	.scl	3;	.type	32;	.endef
	.set	_ZNSt4pairISt8functionIFbvEENSt7__cxx1112basic_stringIcSt11char_traitsIcESaIcEEEEC1IZ4mainEUlvE23_RA23_KcLb1EEEOT_OT0_,_ZNSt4pairISt8functionIFbvEENSt7__cxx1112basic_stringIcSt11char_traitsIcESaIcEEEEC2IZ4mainEUlvE23_RA23_KcLb1EEEOT_OT0_
	.align 2
	.def	_ZNSt4pairISt8functionIFbvEENSt7__cxx1112basic_stringIcSt11char_traitsIcESaIcEEEEC2IZ4mainEUlvE24_RA26_KcLb1EEEOT_OT0_;	.scl	3;	.type	32;	.endef
	.seh_proc	_ZNSt4pairISt8functionIFbvEENSt7__cxx1112basic_stringIcSt11char_traitsIcESaIcEEEEC2IZ4mainEUlvE24_RA26_KcLb1EEEOT_OT0_
_ZNSt4pairISt8functionIFbvEENSt7__cxx1112basic_stringIcSt11char_traitsIcESaIcEEEEC2IZ4mainEUlvE24_RA26_KcLb1EEEOT_OT0_:
.LFB3826:
	pushq	%rbp
	.seh_pushreg	%rbp
	pushq	%rbx
	.seh_pushreg	%rbx
	subq	$56, %rsp
	.seh_stackalloc	56
	leaq	48(%rsp), %rbp
	.seh_setframe	%rbp, 48
	.seh_endprologue
	movq	%rcx, 32(%rbp)
	movq	%rdx, 40(%rbp)
	movq	%r8, 48(%rbp)
	movq	32(%rbp), %rbx
	movq	40(%rbp), %rax
	movq	%rax, %rcx
	call	_ZSt7forwardIZ4mainEUlvE24_EOT_RNSt16remove_referenceIS1_E4typeE
	movq	%rax, %rdx
	movq	%rbx, %rcx
	call	_ZNSt8functionIFbvEEC1IZ4mainEUlvE24_vEEOT_
	movq	32(%rbp), %rax
	leaq	32(%rax), %rbx
	leaq	-1(%rbp), %rax
	movq	%rax, %rcx
	call	_ZNSaIcEC1Ev
	movq	48(%rbp), %rax
	movq	%rax, %rcx
	call	_ZSt7forwardIRA26_KcEOT_RNSt16remove_referenceIS3_E4typeE
	leaq	-1(%rbp), %rdx
	movq	%rdx, %r8
	movq	%rax, %rdx
	movq	%rbx, %rcx
.LEHB50:
	call	_ZNSt7__cxx1112basic_stringIcSt11char_traitsIcESaIcEEC1IS3_EEPKcRKS3_
.LEHE50:
	leaq	-1(%rbp), %rax
	movq	%rax, %rcx
	call	_ZNSaIcED1Ev
	jmp	.L211
.L210:
	movq	%rax, %rbx
	leaq	-1(%rbp), %rax
	movq	%rax, %rcx
	call	_ZNSaIcED1Ev
	movq	32(%rbp), %rax
	movq	%rax, %rcx
	call	_ZNSt8functionIFbvEED1Ev
	movq	%rbx, %rax
	movq	%rax, %rcx
.LEHB51:
	call	_Unwind_Resume
	nop
.LEHE51:
.L211:
	addq	$56, %rsp
	popq	%rbx
	popq	%rbp
	ret
	.seh_handler	__gxx_personality_seh0, @unwind, @except
	.seh_handlerdata
.LLSDA3826:
	.byte	0xff
	.byte	0xff
	.byte	0x1
	.uleb128 .LLSDACSE3826-.LLSDACSB3826
.LLSDACSB3826:
	.uleb128 .LEHB50-.LFB3826
	.uleb128 .LEHE50-.LEHB50
	.uleb128 .L210-.LFB3826
	.uleb128 0
	.uleb128 .LEHB51-.LFB3826
	.uleb128 .LEHE51-.LEHB51
	.uleb128 0
	.uleb128 0
.LLSDACSE3826:
	.text
	.seh_endproc
	.def	_ZNSt4pairISt8functionIFbvEENSt7__cxx1112basic_stringIcSt11char_traitsIcESaIcEEEEC1IZ4mainEUlvE24_RA26_KcLb1EEEOT_OT0_;	.scl	3;	.type	32;	.endef
	.set	_ZNSt4pairISt8functionIFbvEENSt7__cxx1112basic_stringIcSt11char_traitsIcESaIcEEEEC1IZ4mainEUlvE24_RA26_KcLb1EEEOT_OT0_,_ZNSt4pairISt8functionIFbvEENSt7__cxx1112basic_stringIcSt11char_traitsIcESaIcEEEEC2IZ4mainEUlvE24_RA26_KcLb1EEEOT_OT0_
	.align 2
	.def	_ZNSt4pairISt8functionIFbvEENSt7__cxx1112basic_stringIcSt11char_traitsIcESaIcEEEEC2IZ4mainEUlvE25_RA23_KcLb1EEEOT_OT0_;	.scl	3;	.type	32;	.endef
	.seh_proc	_ZNSt4pairISt8functionIFbvEENSt7__cxx1112basic_stringIcSt11char_traitsIcESaIcEEEEC2IZ4mainEUlvE25_RA23_KcLb1EEEOT_OT0_
_ZNSt4pairISt8functionIFbvEENSt7__cxx1112basic_stringIcSt11char_traitsIcESaIcEEEEC2IZ4mainEUlvE25_RA23_KcLb1EEEOT_OT0_:
.LFB3829:
	pushq	%rbp
	.seh_pushreg	%rbp
	pushq	%rbx
	.seh_pushreg	%rbx
	subq	$56, %rsp
	.seh_stackalloc	56
	leaq	48(%rsp), %rbp
	.seh_setframe	%rbp, 48
	.seh_endprologue
	movq	%rcx, 32(%rbp)
	movq	%rdx, 40(%rbp)
	movq	%r8, 48(%rbp)
	movq	32(%rbp), %rbx
	movq	40(%rbp), %rax
	movq	%rax, %rcx
	call	_ZSt7forwardIZ4mainEUlvE25_EOT_RNSt16remove_referenceIS1_E4typeE
	movq	%rax, %rdx
	movq	%rbx, %rcx
	call	_ZNSt8functionIFbvEEC1IZ4mainEUlvE25_vEEOT_
	movq	32(%rbp), %rax
	leaq	32(%rax), %rbx
	leaq	-1(%rbp), %rax
	movq	%rax, %rcx
	call	_ZNSaIcEC1Ev
	movq	48(%rbp), %rax
	movq	%rax, %rcx
	call	_ZSt7forwardIRA23_KcEOT_RNSt16remove_referenceIS3_E4typeE
	leaq	-1(%rbp), %rdx
	movq	%rdx, %r8
	movq	%rax, %rdx
	movq	%rbx, %rcx
.LEHB52:
	call	_ZNSt7__cxx1112basic_stringIcSt11char_traitsIcESaIcEEC1IS3_EEPKcRKS3_
.LEHE52:
	leaq	-1(%rbp), %rax
	movq	%rax, %rcx
	call	_ZNSaIcED1Ev
	jmp	.L215
.L214:
	movq	%rax, %rbx
	leaq	-1(%rbp), %rax
	movq	%rax, %rcx
	call	_ZNSaIcED1Ev
	movq	32(%rbp), %rax
	movq	%rax, %rcx
	call	_ZNSt8functionIFbvEED1Ev
	movq	%rbx, %rax
	movq	%rax, %rcx
.LEHB53:
	call	_Unwind_Resume
	nop
.LEHE53:
.L215:
	addq	$56, %rsp
	popq	%rbx
	popq	%rbp
	ret
	.seh_handler	__gxx_personality_seh0, @unwind, @except
	.seh_handlerdata
.LLSDA3829:
	.byte	0xff
	.byte	0xff
	.byte	0x1
	.uleb128 .LLSDACSE3829-.LLSDACSB3829
.LLSDACSB3829:
	.uleb128 .LEHB52-.LFB3829
	.uleb128 .LEHE52-.LEHB52
	.uleb128 .L214-.LFB3829
	.uleb128 0
	.uleb128 .LEHB53-.LFB3829
	.uleb128 .LEHE53-.LEHB53
	.uleb128 0
	.uleb128 0
.LLSDACSE3829:
	.text
	.seh_endproc
	.def	_ZNSt4pairISt8functionIFbvEENSt7__cxx1112basic_stringIcSt11char_traitsIcESaIcEEEEC1IZ4mainEUlvE25_RA23_KcLb1EEEOT_OT0_;	.scl	3;	.type	32;	.endef
	.set	_ZNSt4pairISt8functionIFbvEENSt7__cxx1112basic_stringIcSt11char_traitsIcESaIcEEEEC1IZ4mainEUlvE25_RA23_KcLb1EEEOT_OT0_,_ZNSt4pairISt8functionIFbvEENSt7__cxx1112basic_stringIcSt11char_traitsIcESaIcEEEEC2IZ4mainEUlvE25_RA23_KcLb1EEEOT_OT0_
	.align 2
	.def	_ZNSt4pairISt8functionIFbvEENSt7__cxx1112basic_stringIcSt11char_traitsIcESaIcEEEEC2IZ4mainEUlvE26_RA19_KcLb1EEEOT_OT0_;	.scl	3;	.type	32;	.endef
	.seh_proc	_ZNSt4pairISt8functionIFbvEENSt7__cxx1112basic_stringIcSt11char_traitsIcESaIcEEEEC2IZ4mainEUlvE26_RA19_KcLb1EEEOT_OT0_
_ZNSt4pairISt8functionIFbvEENSt7__cxx1112basic_stringIcSt11char_traitsIcESaIcEEEEC2IZ4mainEUlvE26_RA19_KcLb1EEEOT_OT0_:
.LFB3832:
	pushq	%rbp
	.seh_pushreg	%rbp
	pushq	%rbx
	.seh_pushreg	%rbx
	subq	$56, %rsp
	.seh_stackalloc	56
	leaq	48(%rsp), %rbp
	.seh_setframe	%rbp, 48
	.seh_endprologue
	movq	%rcx, 32(%rbp)
	movq	%rdx, 40(%rbp)
	movq	%r8, 48(%rbp)
	movq	32(%rbp), %rbx
	movq	40(%rbp), %rax
	movq	%rax, %rcx
	call	_ZSt7forwardIZ4mainEUlvE26_EOT_RNSt16remove_referenceIS1_E4typeE
	movq	%rax, %rdx
	movq	%rbx, %rcx
	call	_ZNSt8functionIFbvEEC1IZ4mainEUlvE26_vEEOT_
	movq	32(%rbp), %rax
	leaq	32(%rax), %rbx
	leaq	-1(%rbp), %rax
	movq	%rax, %rcx
	call	_ZNSaIcEC1Ev
	movq	48(%rbp), %rax
	movq	%rax, %rcx
	call	_ZSt7forwardIRA19_KcEOT_RNSt16remove_referenceIS3_E4typeE
	leaq	-1(%rbp), %rdx
	movq	%rdx, %r8
	movq	%rax, %rdx
	movq	%rbx, %rcx
.LEHB54:
	call	_ZNSt7__cxx1112basic_stringIcSt11char_traitsIcESaIcEEC1IS3_EEPKcRKS3_
.LEHE54:
	leaq	-1(%rbp), %rax
	movq	%rax, %rcx
	call	_ZNSaIcED1Ev
	jmp	.L219
.L218:
	movq	%rax, %rbx
	leaq	-1(%rbp), %rax
	movq	%rax, %rcx
	call	_ZNSaIcED1Ev
	movq	32(%rbp), %rax
	movq	%rax, %rcx
	call	_ZNSt8functionIFbvEED1Ev
	movq	%rbx, %rax
	movq	%rax, %rcx
.LEHB55:
	call	_Unwind_Resume
	nop
.LEHE55:
.L219:
	addq	$56, %rsp
	popq	%rbx
	popq	%rbp
	ret
	.seh_handler	__gxx_personality_seh0, @unwind, @except
	.seh_handlerdata
.LLSDA3832:
	.byte	0xff
	.byte	0xff
	.byte	0x1
	.uleb128 .LLSDACSE3832-.LLSDACSB3832
.LLSDACSB3832:
	.uleb128 .LEHB54-.LFB3832
	.uleb128 .LEHE54-.LEHB54
	.uleb128 .L218-.LFB3832
	.uleb128 0
	.uleb128 .LEHB55-.LFB3832
	.uleb128 .LEHE55-.LEHB55
	.uleb128 0
	.uleb128 0
.LLSDACSE3832:
	.text
	.seh_endproc
	.def	_ZNSt4pairISt8functionIFbvEENSt7__cxx1112basic_stringIcSt11char_traitsIcESaIcEEEEC1IZ4mainEUlvE26_RA19_KcLb1EEEOT_OT0_;	.scl	3;	.type	32;	.endef
	.set	_ZNSt4pairISt8functionIFbvEENSt7__cxx1112basic_stringIcSt11char_traitsIcESaIcEEEEC1IZ4mainEUlvE26_RA19_KcLb1EEEOT_OT0_,_ZNSt4pairISt8functionIFbvEENSt7__cxx1112basic_stringIcSt11char_traitsIcESaIcEEEEC2IZ4mainEUlvE26_RA19_KcLb1EEEOT_OT0_
	.align 2
	.def	_ZNSt4pairISt8functionIFbvEENSt7__cxx1112basic_stringIcSt11char_traitsIcESaIcEEEEC2IZ4mainEUlvE27_RA29_KcLb1EEEOT_OT0_;	.scl	3;	.type	32;	.endef
	.seh_proc	_ZNSt4pairISt8functionIFbvEENSt7__cxx1112basic_stringIcSt11char_traitsIcESaIcEEEEC2IZ4mainEUlvE27_RA29_KcLb1EEEOT_OT0_
_ZNSt4pairISt8functionIFbvEENSt7__cxx1112basic_stringIcSt11char_traitsIcESaIcEEEEC2IZ4mainEUlvE27_RA29_KcLb1EEEOT_OT0_:
.LFB3835:
	pushq	%rbp
	.seh_pushreg	%rbp
	pushq	%rbx
	.seh_pushreg	%rbx
	subq	$56, %rsp
	.seh_stackalloc	56
	leaq	48(%rsp), %rbp
	.seh_setframe	%rbp, 48
	.seh_endprologue
	movq	%rcx, 32(%rbp)
	movq	%rdx, 40(%rbp)
	movq	%r8, 48(%rbp)
	movq	32(%rbp), %rbx
	movq	40(%rbp), %rax
	movq	%rax, %rcx
	call	_ZSt7forwardIZ4mainEUlvE27_EOT_RNSt16remove_referenceIS1_E4typeE
	movq	%rax, %rdx
	movq	%rbx, %rcx
	call	_ZNSt8functionIFbvEEC1IZ4mainEUlvE27_vEEOT_
	movq	32(%rbp), %rax
	leaq	32(%rax), %rbx
	leaq	-1(%rbp), %rax
	movq	%rax, %rcx
	call	_ZNSaIcEC1Ev
	movq	48(%rbp), %rax
	movq	%rax, %rcx
	call	_ZSt7forwardIRA29_KcEOT_RNSt16remove_referenceIS3_E4typeE
	leaq	-1(%rbp), %rdx
	movq	%rdx, %r8
	movq	%rax, %rdx
	movq	%rbx, %rcx
.LEHB56:
	call	_ZNSt7__cxx1112basic_stringIcSt11char_traitsIcESaIcEEC1IS3_EEPKcRKS3_
.LEHE56:
	leaq	-1(%rbp), %rax
	movq	%rax, %rcx
	call	_ZNSaIcED1Ev
	jmp	.L223
.L222:
	movq	%rax, %rbx
	leaq	-1(%rbp), %rax
	movq	%rax, %rcx
	call	_ZNSaIcED1Ev
	movq	32(%rbp), %rax
	movq	%rax, %rcx
	call	_ZNSt8functionIFbvEED1Ev
	movq	%rbx, %rax
	movq	%rax, %rcx
.LEHB57:
	call	_Unwind_Resume
	nop
.LEHE57:
.L223:
	addq	$56, %rsp
	popq	%rbx
	popq	%rbp
	ret
	.seh_handler	__gxx_personality_seh0, @unwind, @except
	.seh_handlerdata
.LLSDA3835:
	.byte	0xff
	.byte	0xff
	.byte	0x1
	.uleb128 .LLSDACSE3835-.LLSDACSB3835
.LLSDACSB3835:
	.uleb128 .LEHB56-.LFB3835
	.uleb128 .LEHE56-.LEHB56
	.uleb128 .L222-.LFB3835
	.uleb128 0
	.uleb128 .LEHB57-.LFB3835
	.uleb128 .LEHE57-.LEHB57
	.uleb128 0
	.uleb128 0
.LLSDACSE3835:
	.text
	.seh_endproc
	.def	_ZNSt4pairISt8functionIFbvEENSt7__cxx1112basic_stringIcSt11char_traitsIcESaIcEEEEC1IZ4mainEUlvE27_RA29_KcLb1EEEOT_OT0_;	.scl	3;	.type	32;	.endef
	.set	_ZNSt4pairISt8functionIFbvEENSt7__cxx1112basic_stringIcSt11char_traitsIcESaIcEEEEC1IZ4mainEUlvE27_RA29_KcLb1EEEOT_OT0_,_ZNSt4pairISt8functionIFbvEENSt7__cxx1112basic_stringIcSt11char_traitsIcESaIcEEEEC2IZ4mainEUlvE27_RA29_KcLb1EEEOT_OT0_
	.align 2
	.def	_ZNSt4pairISt8functionIFbvEENSt7__cxx1112basic_stringIcSt11char_traitsIcESaIcEEEEC2IZ4mainEUlvE28_RA28_KcLb1EEEOT_OT0_;	.scl	3;	.type	32;	.endef
	.seh_proc	_ZNSt4pairISt8functionIFbvEENSt7__cxx1112basic_stringIcSt11char_traitsIcESaIcEEEEC2IZ4mainEUlvE28_RA28_KcLb1EEEOT_OT0_
_ZNSt4pairISt8functionIFbvEENSt7__cxx1112basic_stringIcSt11char_traitsIcESaIcEEEEC2IZ4mainEUlvE28_RA28_KcLb1EEEOT_OT0_:
.LFB3838:
	pushq	%rbp
	.seh_pushreg	%rbp
	pushq	%rbx
	.seh_pushreg	%rbx
	subq	$56, %rsp
	.seh_stackalloc	56
	leaq	48(%rsp), %rbp
	.seh_setframe	%rbp, 48
	.seh_endprologue
	movq	%rcx, 32(%rbp)
	movq	%rdx, 40(%rbp)
	movq	%r8, 48(%rbp)
	movq	32(%rbp), %rbx
	movq	40(%rbp), %rax
	movq	%rax, %rcx
	call	_ZSt7forwardIZ4mainEUlvE28_EOT_RNSt16remove_referenceIS1_E4typeE
	movq	%rax, %rdx
	movq	%rbx, %rcx
	call	_ZNSt8functionIFbvEEC1IZ4mainEUlvE28_vEEOT_
	movq	32(%rbp), %rax
	leaq	32(%rax), %rbx
	leaq	-1(%rbp), %rax
	movq	%rax, %rcx
	call	_ZNSaIcEC1Ev
	movq	48(%rbp), %rax
	movq	%rax, %rcx
	call	_ZSt7forwardIRA28_KcEOT_RNSt16remove_referenceIS3_E4typeE
	leaq	-1(%rbp), %rdx
	movq	%rdx, %r8
	movq	%rax, %rdx
	movq	%rbx, %rcx
.LEHB58:
	call	_ZNSt7__cxx1112basic_stringIcSt11char_traitsIcESaIcEEC1IS3_EEPKcRKS3_
.LEHE58:
	leaq	-1(%rbp), %rax
	movq	%rax, %rcx
	call	_ZNSaIcED1Ev
	jmp	.L227
.L226:
	movq	%rax, %rbx
	leaq	-1(%rbp), %rax
	movq	%rax, %rcx
	call	_ZNSaIcED1Ev
	movq	32(%rbp), %rax
	movq	%rax, %rcx
	call	_ZNSt8functionIFbvEED1Ev
	movq	%rbx, %rax
	movq	%rax, %rcx
.LEHB59:
	call	_Unwind_Resume
	nop
.LEHE59:
.L227:
	addq	$56, %rsp
	popq	%rbx
	popq	%rbp
	ret
	.seh_handler	__gxx_personality_seh0, @unwind, @except
	.seh_handlerdata
.LLSDA3838:
	.byte	0xff
	.byte	0xff
	.byte	0x1
	.uleb128 .LLSDACSE3838-.LLSDACSB3838
.LLSDACSB3838:
	.uleb128 .LEHB58-.LFB3838
	.uleb128 .LEHE58-.LEHB58
	.uleb128 .L226-.LFB3838
	.uleb128 0
	.uleb128 .LEHB59-.LFB3838
	.uleb128 .LEHE59-.LEHB59
	.uleb128 0
	.uleb128 0
.LLSDACSE3838:
	.text
	.seh_endproc
	.def	_ZNSt4pairISt8functionIFbvEENSt7__cxx1112basic_stringIcSt11char_traitsIcESaIcEEEEC1IZ4mainEUlvE28_RA28_KcLb1EEEOT_OT0_;	.scl	3;	.type	32;	.endef
	.set	_ZNSt4pairISt8functionIFbvEENSt7__cxx1112basic_stringIcSt11char_traitsIcESaIcEEEEC1IZ4mainEUlvE28_RA28_KcLb1EEEOT_OT0_,_ZNSt4pairISt8functionIFbvEENSt7__cxx1112basic_stringIcSt11char_traitsIcESaIcEEEEC2IZ4mainEUlvE28_RA28_KcLb1EEEOT_OT0_
	.align 2
	.def	_ZNSt4pairISt8functionIFbvEENSt7__cxx1112basic_stringIcSt11char_traitsIcESaIcEEEEC2IZ4mainEUlvE29_RA28_KcLb1EEEOT_OT0_;	.scl	3;	.type	32;	.endef
	.seh_proc	_ZNSt4pairISt8functionIFbvEENSt7__cxx1112basic_stringIcSt11char_traitsIcESaIcEEEEC2IZ4mainEUlvE29_RA28_KcLb1EEEOT_OT0_
_ZNSt4pairISt8functionIFbvEENSt7__cxx1112basic_stringIcSt11char_traitsIcESaIcEEEEC2IZ4mainEUlvE29_RA28_KcLb1EEEOT_OT0_:
.LFB3841:
	pushq	%rbp
	.seh_pushreg	%rbp
	pushq	%rbx
	.seh_pushreg	%rbx
	subq	$56, %rsp
	.seh_stackalloc	56
	leaq	48(%rsp), %rbp
	.seh_setframe	%rbp, 48
	.seh_endprologue
	movq	%rcx, 32(%rbp)
	movq	%rdx, 40(%rbp)
	movq	%r8, 48(%rbp)
	movq	32(%rbp), %rbx
	movq	40(%rbp), %rax
	movq	%rax, %rcx
	call	_ZSt7forwardIZ4mainEUlvE29_EOT_RNSt16remove_referenceIS1_E4typeE
	movq	%rax, %rdx
	movq	%rbx, %rcx
	call	_ZNSt8functionIFbvEEC1IZ4mainEUlvE29_vEEOT_
	movq	32(%rbp), %rax
	leaq	32(%rax), %rbx
	leaq	-1(%rbp), %rax
	movq	%rax, %rcx
	call	_ZNSaIcEC1Ev
	movq	48(%rbp), %rax
	movq	%rax, %rcx
	call	_ZSt7forwardIRA28_KcEOT_RNSt16remove_referenceIS3_E4typeE
	leaq	-1(%rbp), %rdx
	movq	%rdx, %r8
	movq	%rax, %rdx
	movq	%rbx, %rcx
.LEHB60:
	call	_ZNSt7__cxx1112basic_stringIcSt11char_traitsIcESaIcEEC1IS3_EEPKcRKS3_
.LEHE60:
	leaq	-1(%rbp), %rax
	movq	%rax, %rcx
	call	_ZNSaIcED1Ev
	jmp	.L231
.L230:
	movq	%rax, %rbx
	leaq	-1(%rbp), %rax
	movq	%rax, %rcx
	call	_ZNSaIcED1Ev
	movq	32(%rbp), %rax
	movq	%rax, %rcx
	call	_ZNSt8functionIFbvEED1Ev
	movq	%rbx, %rax
	movq	%rax, %rcx
.LEHB61:
	call	_Unwind_Resume
	nop
.LEHE61:
.L231:
	addq	$56, %rsp
	popq	%rbx
	popq	%rbp
	ret
	.seh_handler	__gxx_personality_seh0, @unwind, @except
	.seh_handlerdata
.LLSDA3841:
	.byte	0xff
	.byte	0xff
	.byte	0x1
	.uleb128 .LLSDACSE3841-.LLSDACSB3841
.LLSDACSB3841:
	.uleb128 .LEHB60-.LFB3841
	.uleb128 .LEHE60-.LEHB60
	.uleb128 .L230-.LFB3841
	.uleb128 0
	.uleb128 .LEHB61-.LFB3841
	.uleb128 .LEHE61-.LEHB61
	.uleb128 0
	.uleb128 0
.LLSDACSE3841:
	.text
	.seh_endproc
	.def	_ZNSt4pairISt8functionIFbvEENSt7__cxx1112basic_stringIcSt11char_traitsIcESaIcEEEEC1IZ4mainEUlvE29_RA28_KcLb1EEEOT_OT0_;	.scl	3;	.type	32;	.endef
	.set	_ZNSt4pairISt8functionIFbvEENSt7__cxx1112basic_stringIcSt11char_traitsIcESaIcEEEEC1IZ4mainEUlvE29_RA28_KcLb1EEEOT_OT0_,_ZNSt4pairISt8functionIFbvEENSt7__cxx1112basic_stringIcSt11char_traitsIcESaIcEEEEC2IZ4mainEUlvE29_RA28_KcLb1EEEOT_OT0_
	.align 2
	.def	_ZNSt4pairISt8functionIFbvEENSt7__cxx1112basic_stringIcSt11char_traitsIcESaIcEEEEC2IZ4mainEUlvE30_RA19_KcLb1EEEOT_OT0_;	.scl	3;	.type	32;	.endef
	.seh_proc	_ZNSt4pairISt8functionIFbvEENSt7__cxx1112basic_stringIcSt11char_traitsIcESaIcEEEEC2IZ4mainEUlvE30_RA19_KcLb1EEEOT_OT0_
_ZNSt4pairISt8functionIFbvEENSt7__cxx1112basic_stringIcSt11char_traitsIcESaIcEEEEC2IZ4mainEUlvE30_RA19_KcLb1EEEOT_OT0_:
.LFB3844:
	pushq	%rbp
	.seh_pushreg	%rbp
	pushq	%rbx
	.seh_pushreg	%rbx
	subq	$56, %rsp
	.seh_stackalloc	56
	leaq	48(%rsp), %rbp
	.seh_setframe	%rbp, 48
	.seh_endprologue
	movq	%rcx, 32(%rbp)
	movq	%rdx, 40(%rbp)
	movq	%r8, 48(%rbp)
	movq	32(%rbp), %rbx
	movq	40(%rbp), %rax
	movq	%rax, %rcx
	call	_ZSt7forwardIZ4mainEUlvE30_EOT_RNSt16remove_referenceIS1_E4typeE
	movq	%rax, %rdx
	movq	%rbx, %rcx
	call	_ZNSt8functionIFbvEEC1IZ4mainEUlvE30_vEEOT_
	movq	32(%rbp), %rax
	leaq	32(%rax), %rbx
	leaq	-1(%rbp), %rax
	movq	%rax, %rcx
	call	_ZNSaIcEC1Ev
	movq	48(%rbp), %rax
	movq	%rax, %rcx
	call	_ZSt7forwardIRA19_KcEOT_RNSt16remove_referenceIS3_E4typeE
	leaq	-1(%rbp), %rdx
	movq	%rdx, %r8
	movq	%rax, %rdx
	movq	%rbx, %rcx
.LEHB62:
	call	_ZNSt7__cxx1112basic_stringIcSt11char_traitsIcESaIcEEC1IS3_EEPKcRKS3_
.LEHE62:
	leaq	-1(%rbp), %rax
	movq	%rax, %rcx
	call	_ZNSaIcED1Ev
	jmp	.L235
.L234:
	movq	%rax, %rbx
	leaq	-1(%rbp), %rax
	movq	%rax, %rcx
	call	_ZNSaIcED1Ev
	movq	32(%rbp), %rax
	movq	%rax, %rcx
	call	_ZNSt8functionIFbvEED1Ev
	movq	%rbx, %rax
	movq	%rax, %rcx
.LEHB63:
	call	_Unwind_Resume
	nop
.LEHE63:
.L235:
	addq	$56, %rsp
	popq	%rbx
	popq	%rbp
	ret
	.seh_handler	__gxx_personality_seh0, @unwind, @except
	.seh_handlerdata
.LLSDA3844:
	.byte	0xff
	.byte	0xff
	.byte	0x1
	.uleb128 .LLSDACSE3844-.LLSDACSB3844
.LLSDACSB3844:
	.uleb128 .LEHB62-.LFB3844
	.uleb128 .LEHE62-.LEHB62
	.uleb128 .L234-.LFB3844
	.uleb128 0
	.uleb128 .LEHB63-.LFB3844
	.uleb128 .LEHE63-.LEHB63
	.uleb128 0
	.uleb128 0
.LLSDACSE3844:
	.text
	.seh_endproc
	.def	_ZNSt4pairISt8functionIFbvEENSt7__cxx1112basic_stringIcSt11char_traitsIcESaIcEEEEC1IZ4mainEUlvE30_RA19_KcLb1EEEOT_OT0_;	.scl	3;	.type	32;	.endef
	.set	_ZNSt4pairISt8functionIFbvEENSt7__cxx1112basic_stringIcSt11char_traitsIcESaIcEEEEC1IZ4mainEUlvE30_RA19_KcLb1EEEOT_OT0_,_ZNSt4pairISt8functionIFbvEENSt7__cxx1112basic_stringIcSt11char_traitsIcESaIcEEEEC2IZ4mainEUlvE30_RA19_KcLb1EEEOT_OT0_
	.align 2
	.def	_ZNSt4pairISt8functionIFbvEENSt7__cxx1112basic_stringIcSt11char_traitsIcESaIcEEEEC2IZ4mainEUlvE31_RA19_KcLb1EEEOT_OT0_;	.scl	3;	.type	32;	.endef
	.seh_proc	_ZNSt4pairISt8functionIFbvEENSt7__cxx1112basic_stringIcSt11char_traitsIcESaIcEEEEC2IZ4mainEUlvE31_RA19_KcLb1EEEOT_OT0_
_ZNSt4pairISt8functionIFbvEENSt7__cxx1112basic_stringIcSt11char_traitsIcESaIcEEEEC2IZ4mainEUlvE31_RA19_KcLb1EEEOT_OT0_:
.LFB3847:
	pushq	%rbp
	.seh_pushreg	%rbp
	pushq	%rbx
	.seh_pushreg	%rbx
	subq	$56, %rsp
	.seh_stackalloc	56
	leaq	48(%rsp), %rbp
	.seh_setframe	%rbp, 48
	.seh_endprologue
	movq	%rcx, 32(%rbp)
	movq	%rdx, 40(%rbp)
	movq	%r8, 48(%rbp)
	movq	32(%rbp), %rbx
	movq	40(%rbp), %rax
	movq	%rax, %rcx
	call	_ZSt7forwardIZ4mainEUlvE31_EOT_RNSt16remove_referenceIS1_E4typeE
	movq	%rax, %rdx
	movq	%rbx, %rcx
	call	_ZNSt8functionIFbvEEC1IZ4mainEUlvE31_vEEOT_
	movq	32(%rbp), %rax
	leaq	32(%rax), %rbx
	leaq	-1(%rbp), %rax
	movq	%rax, %rcx
	call	_ZNSaIcEC1Ev
	movq	48(%rbp), %rax
	movq	%rax, %rcx
	call	_ZSt7forwardIRA19_KcEOT_RNSt16remove_referenceIS3_E4typeE
	leaq	-1(%rbp), %rdx
	movq	%rdx, %r8
	movq	%rax, %rdx
	movq	%rbx, %rcx
.LEHB64:
	call	_ZNSt7__cxx1112basic_stringIcSt11char_traitsIcESaIcEEC1IS3_EEPKcRKS3_
.LEHE64:
	leaq	-1(%rbp), %rax
	movq	%rax, %rcx
	call	_ZNSaIcED1Ev
	jmp	.L239
.L238:
	movq	%rax, %rbx
	leaq	-1(%rbp), %rax
	movq	%rax, %rcx
	call	_ZNSaIcED1Ev
	movq	32(%rbp), %rax
	movq	%rax, %rcx
	call	_ZNSt8functionIFbvEED1Ev
	movq	%rbx, %rax
	movq	%rax, %rcx
.LEHB65:
	call	_Unwind_Resume
	nop
.LEHE65:
.L239:
	addq	$56, %rsp
	popq	%rbx
	popq	%rbp
	ret
	.seh_handler	__gxx_personality_seh0, @unwind, @except
	.seh_handlerdata
.LLSDA3847:
	.byte	0xff
	.byte	0xff
	.byte	0x1
	.uleb128 .LLSDACSE3847-.LLSDACSB3847
.LLSDACSB3847:
	.uleb128 .LEHB64-.LFB3847
	.uleb128 .LEHE64-.LEHB64
	.uleb128 .L238-.LFB3847
	.uleb128 0
	.uleb128 .LEHB65-.LFB3847
	.uleb128 .LEHE65-.LEHB65
	.uleb128 0
	.uleb128 0
.LLSDACSE3847:
	.text
	.seh_endproc
	.def	_ZNSt4pairISt8functionIFbvEENSt7__cxx1112basic_stringIcSt11char_traitsIcESaIcEEEEC1IZ4mainEUlvE31_RA19_KcLb1EEEOT_OT0_;	.scl	3;	.type	32;	.endef
	.set	_ZNSt4pairISt8functionIFbvEENSt7__cxx1112basic_stringIcSt11char_traitsIcESaIcEEEEC1IZ4mainEUlvE31_RA19_KcLb1EEEOT_OT0_,_ZNSt4pairISt8functionIFbvEENSt7__cxx1112basic_stringIcSt11char_traitsIcESaIcEEEEC2IZ4mainEUlvE31_RA19_KcLb1EEEOT_OT0_
	.align 2
	.def	_ZNSt4pairISt8functionIFbvEENSt7__cxx1112basic_stringIcSt11char_traitsIcESaIcEEEEC2IZ4mainEUlvE32_RA35_KcLb1EEEOT_OT0_;	.scl	3;	.type	32;	.endef
	.seh_proc	_ZNSt4pairISt8functionIFbvEENSt7__cxx1112basic_stringIcSt11char_traitsIcESaIcEEEEC2IZ4mainEUlvE32_RA35_KcLb1EEEOT_OT0_
_ZNSt4pairISt8functionIFbvEENSt7__cxx1112basic_stringIcSt11char_traitsIcESaIcEEEEC2IZ4mainEUlvE32_RA35_KcLb1EEEOT_OT0_:
.LFB3850:
	pushq	%rbp
	.seh_pushreg	%rbp
	pushq	%rbx
	.seh_pushreg	%rbx
	subq	$56, %rsp
	.seh_stackalloc	56
	leaq	48(%rsp), %rbp
	.seh_setframe	%rbp, 48
	.seh_endprologue
	movq	%rcx, 32(%rbp)
	movq	%rdx, 40(%rbp)
	movq	%r8, 48(%rbp)
	movq	32(%rbp), %rbx
	movq	40(%rbp), %rax
	movq	%rax, %rcx
	call	_ZSt7forwardIZ4mainEUlvE32_EOT_RNSt16remove_referenceIS1_E4typeE
	movq	%rax, %rdx
	movq	%rbx, %rcx
	call	_ZNSt8functionIFbvEEC1IZ4mainEUlvE32_vEEOT_
	movq	32(%rbp), %rax
	leaq	32(%rax), %rbx
	leaq	-1(%rbp), %rax
	movq	%rax, %rcx
	call	_ZNSaIcEC1Ev
	movq	48(%rbp), %rax
	movq	%rax, %rcx
	call	_ZSt7forwardIRA35_KcEOT_RNSt16remove_referenceIS3_E4typeE
	leaq	-1(%rbp), %rdx
	movq	%rdx, %r8
	movq	%rax, %rdx
	movq	%rbx, %rcx
.LEHB66:
	call	_ZNSt7__cxx1112basic_stringIcSt11char_traitsIcESaIcEEC1IS3_EEPKcRKS3_
.LEHE66:
	leaq	-1(%rbp), %rax
	movq	%rax, %rcx
	call	_ZNSaIcED1Ev
	jmp	.L243
.L242:
	movq	%rax, %rbx
	leaq	-1(%rbp), %rax
	movq	%rax, %rcx
	call	_ZNSaIcED1Ev
	movq	32(%rbp), %rax
	movq	%rax, %rcx
	call	_ZNSt8functionIFbvEED1Ev
	movq	%rbx, %rax
	movq	%rax, %rcx
.LEHB67:
	call	_Unwind_Resume
	nop
.LEHE67:
.L243:
	addq	$56, %rsp
	popq	%rbx
	popq	%rbp
	ret
	.seh_handler	__gxx_personality_seh0, @unwind, @except
	.seh_handlerdata
.LLSDA3850:
	.byte	0xff
	.byte	0xff
	.byte	0x1
	.uleb128 .LLSDACSE3850-.LLSDACSB3850
.LLSDACSB3850:
	.uleb128 .LEHB66-.LFB3850
	.uleb128 .LEHE66-.LEHB66
	.uleb128 .L242-.LFB3850
	.uleb128 0
	.uleb128 .LEHB67-.LFB3850
	.uleb128 .LEHE67-.LEHB67
	.uleb128 0
	.uleb128 0
.LLSDACSE3850:
	.text
	.seh_endproc
	.def	_ZNSt4pairISt8functionIFbvEENSt7__cxx1112basic_stringIcSt11char_traitsIcESaIcEEEEC1IZ4mainEUlvE32_RA35_KcLb1EEEOT_OT0_;	.scl	3;	.type	32;	.endef
	.set	_ZNSt4pairISt8functionIFbvEENSt7__cxx1112basic_stringIcSt11char_traitsIcESaIcEEEEC1IZ4mainEUlvE32_RA35_KcLb1EEEOT_OT0_,_ZNSt4pairISt8functionIFbvEENSt7__cxx1112basic_stringIcSt11char_traitsIcESaIcEEEEC2IZ4mainEUlvE32_RA35_KcLb1EEEOT_OT0_
	.align 2
	.def	_ZNSt4pairISt8functionIFbvEENSt7__cxx1112basic_stringIcSt11char_traitsIcESaIcEEEEC2IZ4mainEUlvE33_RA35_KcLb1EEEOT_OT0_;	.scl	3;	.type	32;	.endef
	.seh_proc	_ZNSt4pairISt8functionIFbvEENSt7__cxx1112basic_stringIcSt11char_traitsIcESaIcEEEEC2IZ4mainEUlvE33_RA35_KcLb1EEEOT_OT0_
_ZNSt4pairISt8functionIFbvEENSt7__cxx1112basic_stringIcSt11char_traitsIcESaIcEEEEC2IZ4mainEUlvE33_RA35_KcLb1EEEOT_OT0_:
.LFB3853:
	pushq	%rbp
	.seh_pushreg	%rbp
	pushq	%rbx
	.seh_pushreg	%rbx
	subq	$56, %rsp
	.seh_stackalloc	56
	leaq	48(%rsp), %rbp
	.seh_setframe	%rbp, 48
	.seh_endprologue
	movq	%rcx, 32(%rbp)
	movq	%rdx, 40(%rbp)
	movq	%r8, 48(%rbp)
	movq	32(%rbp), %rbx
	movq	40(%rbp), %rax
	movq	%rax, %rcx
	call	_ZSt7forwardIZ4mainEUlvE33_EOT_RNSt16remove_referenceIS1_E4typeE
	movq	%rax, %rdx
	movq	%rbx, %rcx
	call	_ZNSt8functionIFbvEEC1IZ4mainEUlvE33_vEEOT_
	movq	32(%rbp), %rax
	leaq	32(%rax), %rbx
	leaq	-1(%rbp), %rax
	movq	%rax, %rcx
	call	_ZNSaIcEC1Ev
	movq	48(%rbp), %rax
	movq	%rax, %rcx
	call	_ZSt7forwardIRA35_KcEOT_RNSt16remove_referenceIS3_E4typeE
	leaq	-1(%rbp), %rdx
	movq	%rdx, %r8
	movq	%rax, %rdx
	movq	%rbx, %rcx
.LEHB68:
	call	_ZNSt7__cxx1112basic_stringIcSt11char_traitsIcESaIcEEC1IS3_EEPKcRKS3_
.LEHE68:
	leaq	-1(%rbp), %rax
	movq	%rax, %rcx
	call	_ZNSaIcED1Ev
	jmp	.L247
.L246:
	movq	%rax, %rbx
	leaq	-1(%rbp), %rax
	movq	%rax, %rcx
	call	_ZNSaIcED1Ev
	movq	32(%rbp), %rax
	movq	%rax, %rcx
	call	_ZNSt8functionIFbvEED1Ev
	movq	%rbx, %rax
	movq	%rax, %rcx
.LEHB69:
	call	_Unwind_Resume
	nop
.LEHE69:
.L247:
	addq	$56, %rsp
	popq	%rbx
	popq	%rbp
	ret
	.seh_handler	__gxx_personality_seh0, @unwind, @except
	.seh_handlerdata
.LLSDA3853:
	.byte	0xff
	.byte	0xff
	.byte	0x1
	.uleb128 .LLSDACSE3853-.LLSDACSB3853
.LLSDACSB3853:
	.uleb128 .LEHB68-.LFB3853
	.uleb128 .LEHE68-.LEHB68
	.uleb128 .L246-.LFB3853
	.uleb128 0
	.uleb128 .LEHB69-.LFB3853
	.uleb128 .LEHE69-.LEHB69
	.uleb128 0
	.uleb128 0
.LLSDACSE3853:
	.text
	.seh_endproc
	.def	_ZNSt4pairISt8functionIFbvEENSt7__cxx1112basic_stringIcSt11char_traitsIcESaIcEEEEC1IZ4mainEUlvE33_RA35_KcLb1EEEOT_OT0_;	.scl	3;	.type	32;	.endef
	.set	_ZNSt4pairISt8functionIFbvEENSt7__cxx1112basic_stringIcSt11char_traitsIcESaIcEEEEC1IZ4mainEUlvE33_RA35_KcLb1EEEOT_OT0_,_ZNSt4pairISt8functionIFbvEENSt7__cxx1112basic_stringIcSt11char_traitsIcESaIcEEEEC2IZ4mainEUlvE33_RA35_KcLb1EEEOT_OT0_
	.align 2
	.def	_ZNSt4pairISt8functionIFbvEENSt7__cxx1112basic_stringIcSt11char_traitsIcESaIcEEEEC2IZ4mainEUlvE34_RA35_KcLb1EEEOT_OT0_;	.scl	3;	.type	32;	.endef
	.seh_proc	_ZNSt4pairISt8functionIFbvEENSt7__cxx1112basic_stringIcSt11char_traitsIcESaIcEEEEC2IZ4mainEUlvE34_RA35_KcLb1EEEOT_OT0_
_ZNSt4pairISt8functionIFbvEENSt7__cxx1112basic_stringIcSt11char_traitsIcESaIcEEEEC2IZ4mainEUlvE34_RA35_KcLb1EEEOT_OT0_:
.LFB3856:
	pushq	%rbp
	.seh_pushreg	%rbp
	pushq	%rbx
	.seh_pushreg	%rbx
	subq	$56, %rsp
	.seh_stackalloc	56
	leaq	48(%rsp), %rbp
	.seh_setframe	%rbp, 48
	.seh_endprologue
	movq	%rcx, 32(%rbp)
	movq	%rdx, 40(%rbp)
	movq	%r8, 48(%rbp)
	movq	32(%rbp), %rbx
	movq	40(%rbp), %rax
	movq	%rax, %rcx
	call	_ZSt7forwardIZ4mainEUlvE34_EOT_RNSt16remove_referenceIS1_E4typeE
	movq	%rax, %rdx
	movq	%rbx, %rcx
	call	_ZNSt8functionIFbvEEC1IZ4mainEUlvE34_vEEOT_
	movq	32(%rbp), %rax
	leaq	32(%rax), %rbx
	leaq	-1(%rbp), %rax
	movq	%rax, %rcx
	call	_ZNSaIcEC1Ev
	movq	48(%rbp), %rax
	movq	%rax, %rcx
	call	_ZSt7forwardIRA35_KcEOT_RNSt16remove_referenceIS3_E4typeE
	leaq	-1(%rbp), %rdx
	movq	%rdx, %r8
	movq	%rax, %rdx
	movq	%rbx, %rcx
.LEHB70:
	call	_ZNSt7__cxx1112basic_stringIcSt11char_traitsIcESaIcEEC1IS3_EEPKcRKS3_
.LEHE70:
	leaq	-1(%rbp), %rax
	movq	%rax, %rcx
	call	_ZNSaIcED1Ev
	jmp	.L251
.L250:
	movq	%rax, %rbx
	leaq	-1(%rbp), %rax
	movq	%rax, %rcx
	call	_ZNSaIcED1Ev
	movq	32(%rbp), %rax
	movq	%rax, %rcx
	call	_ZNSt8functionIFbvEED1Ev
	movq	%rbx, %rax
	movq	%rax, %rcx
.LEHB71:
	call	_Unwind_Resume
	nop
.LEHE71:
.L251:
	addq	$56, %rsp
	popq	%rbx
	popq	%rbp
	ret
	.seh_handler	__gxx_personality_seh0, @unwind, @except
	.seh_handlerdata
.LLSDA3856:
	.byte	0xff
	.byte	0xff
	.byte	0x1
	.uleb128 .LLSDACSE3856-.LLSDACSB3856
.LLSDACSB3856:
	.uleb128 .LEHB70-.LFB3856
	.uleb128 .LEHE70-.LEHB70
	.uleb128 .L250-.LFB3856
	.uleb128 0
	.uleb128 .LEHB71-.LFB3856
	.uleb128 .LEHE71-.LEHB71
	.uleb128 0
	.uleb128 0
.LLSDACSE3856:
	.text
	.seh_endproc
	.def	_ZNSt4pairISt8functionIFbvEENSt7__cxx1112basic_stringIcSt11char_traitsIcESaIcEEEEC1IZ4mainEUlvE34_RA35_KcLb1EEEOT_OT0_;	.scl	3;	.type	32;	.endef
	.set	_ZNSt4pairISt8functionIFbvEENSt7__cxx1112basic_stringIcSt11char_traitsIcESaIcEEEEC1IZ4mainEUlvE34_RA35_KcLb1EEEOT_OT0_,_ZNSt4pairISt8functionIFbvEENSt7__cxx1112basic_stringIcSt11char_traitsIcESaIcEEEEC2IZ4mainEUlvE34_RA35_KcLb1EEEOT_OT0_
	.align 2
	.def	_ZNSt4pairISt8functionIFbvEENSt7__cxx1112basic_stringIcSt11char_traitsIcESaIcEEEEC2IZ4mainEUlvE35_RA35_KcLb1EEEOT_OT0_;	.scl	3;	.type	32;	.endef
	.seh_proc	_ZNSt4pairISt8functionIFbvEENSt7__cxx1112basic_stringIcSt11char_traitsIcESaIcEEEEC2IZ4mainEUlvE35_RA35_KcLb1EEEOT_OT0_
_ZNSt4pairISt8functionIFbvEENSt7__cxx1112basic_stringIcSt11char_traitsIcESaIcEEEEC2IZ4mainEUlvE35_RA35_KcLb1EEEOT_OT0_:
.LFB3859:
	pushq	%rbp
	.seh_pushreg	%rbp
	pushq	%rbx
	.seh_pushreg	%rbx
	subq	$56, %rsp
	.seh_stackalloc	56
	leaq	48(%rsp), %rbp
	.seh_setframe	%rbp, 48
	.seh_endprologue
	movq	%rcx, 32(%rbp)
	movq	%rdx, 40(%rbp)
	movq	%r8, 48(%rbp)
	movq	32(%rbp), %rbx
	movq	40(%rbp), %rax
	movq	%rax, %rcx
	call	_ZSt7forwardIZ4mainEUlvE35_EOT_RNSt16remove_referenceIS1_E4typeE
	movq	%rax, %rdx
	movq	%rbx, %rcx
	call	_ZNSt8functionIFbvEEC1IZ4mainEUlvE35_vEEOT_
	movq	32(%rbp), %rax
	leaq	32(%rax), %rbx
	leaq	-1(%rbp), %rax
	movq	%rax, %rcx
	call	_ZNSaIcEC1Ev
	movq	48(%rbp), %rax
	movq	%rax, %rcx
	call	_ZSt7forwardIRA35_KcEOT_RNSt16remove_referenceIS3_E4typeE
	leaq	-1(%rbp), %rdx
	movq	%rdx, %r8
	movq	%rax, %rdx
	movq	%rbx, %rcx
.LEHB72:
	call	_ZNSt7__cxx1112basic_stringIcSt11char_traitsIcESaIcEEC1IS3_EEPKcRKS3_
.LEHE72:
	leaq	-1(%rbp), %rax
	movq	%rax, %rcx
	call	_ZNSaIcED1Ev
	jmp	.L255
.L254:
	movq	%rax, %rbx
	leaq	-1(%rbp), %rax
	movq	%rax, %rcx
	call	_ZNSaIcED1Ev
	movq	32(%rbp), %rax
	movq	%rax, %rcx
	call	_ZNSt8functionIFbvEED1Ev
	movq	%rbx, %rax
	movq	%rax, %rcx
.LEHB73:
	call	_Unwind_Resume
	nop
.LEHE73:
.L255:
	addq	$56, %rsp
	popq	%rbx
	popq	%rbp
	ret
	.seh_handler	__gxx_personality_seh0, @unwind, @except
	.seh_handlerdata
.LLSDA3859:
	.byte	0xff
	.byte	0xff
	.byte	0x1
	.uleb128 .LLSDACSE3859-.LLSDACSB3859
.LLSDACSB3859:
	.uleb128 .LEHB72-.LFB3859
	.uleb128 .LEHE72-.LEHB72
	.uleb128 .L254-.LFB3859
	.uleb128 0
	.uleb128 .LEHB73-.LFB3859
	.uleb128 .LEHE73-.LEHB73
	.uleb128 0
	.uleb128 0
.LLSDACSE3859:
	.text
	.seh_endproc
	.def	_ZNSt4pairISt8functionIFbvEENSt7__cxx1112basic_stringIcSt11char_traitsIcESaIcEEEEC1IZ4mainEUlvE35_RA35_KcLb1EEEOT_OT0_;	.scl	3;	.type	32;	.endef
	.set	_ZNSt4pairISt8functionIFbvEENSt7__cxx1112basic_stringIcSt11char_traitsIcESaIcEEEEC1IZ4mainEUlvE35_RA35_KcLb1EEEOT_OT0_,_ZNSt4pairISt8functionIFbvEENSt7__cxx1112basic_stringIcSt11char_traitsIcESaIcEEEEC2IZ4mainEUlvE35_RA35_KcLb1EEEOT_OT0_
	.align 2
	.def	_ZNSt4pairISt8functionIFbvEENSt7__cxx1112basic_stringIcSt11char_traitsIcESaIcEEEEC2IZ4mainEUlvE36_RA19_KcLb1EEEOT_OT0_;	.scl	3;	.type	32;	.endef
	.seh_proc	_ZNSt4pairISt8functionIFbvEENSt7__cxx1112basic_stringIcSt11char_traitsIcESaIcEEEEC2IZ4mainEUlvE36_RA19_KcLb1EEEOT_OT0_
_ZNSt4pairISt8functionIFbvEENSt7__cxx1112basic_stringIcSt11char_traitsIcESaIcEEEEC2IZ4mainEUlvE36_RA19_KcLb1EEEOT_OT0_:
.LFB3862:
	pushq	%rbp
	.seh_pushreg	%rbp
	pushq	%rbx
	.seh_pushreg	%rbx
	subq	$56, %rsp
	.seh_stackalloc	56
	leaq	48(%rsp), %rbp
	.seh_setframe	%rbp, 48
	.seh_endprologue
	movq	%rcx, 32(%rbp)
	movq	%rdx, 40(%rbp)
	movq	%r8, 48(%rbp)
	movq	32(%rbp), %rbx
	movq	40(%rbp), %rax
	movq	%rax, %rcx
	call	_ZSt7forwardIZ4mainEUlvE36_EOT_RNSt16remove_referenceIS1_E4typeE
	movq	%rax, %rdx
	movq	%rbx, %rcx
	call	_ZNSt8functionIFbvEEC1IZ4mainEUlvE36_vEEOT_
	movq	32(%rbp), %rax
	leaq	32(%rax), %rbx
	leaq	-1(%rbp), %rax
	movq	%rax, %rcx
	call	_ZNSaIcEC1Ev
	movq	48(%rbp), %rax
	movq	%rax, %rcx
	call	_ZSt7forwardIRA19_KcEOT_RNSt16remove_referenceIS3_E4typeE
	leaq	-1(%rbp), %rdx
	movq	%rdx, %r8
	movq	%rax, %rdx
	movq	%rbx, %rcx
.LEHB74:
	call	_ZNSt7__cxx1112basic_stringIcSt11char_traitsIcESaIcEEC1IS3_EEPKcRKS3_
.LEHE74:
	leaq	-1(%rbp), %rax
	movq	%rax, %rcx
	call	_ZNSaIcED1Ev
	jmp	.L259
.L258:
	movq	%rax, %rbx
	leaq	-1(%rbp), %rax
	movq	%rax, %rcx
	call	_ZNSaIcED1Ev
	movq	32(%rbp), %rax
	movq	%rax, %rcx
	call	_ZNSt8functionIFbvEED1Ev
	movq	%rbx, %rax
	movq	%rax, %rcx
.LEHB75:
	call	_Unwind_Resume
	nop
.LEHE75:
.L259:
	addq	$56, %rsp
	popq	%rbx
	popq	%rbp
	ret
	.seh_handler	__gxx_personality_seh0, @unwind, @except
	.seh_handlerdata
.LLSDA3862:
	.byte	0xff
	.byte	0xff
	.byte	0x1
	.uleb128 .LLSDACSE3862-.LLSDACSB3862
.LLSDACSB3862:
	.uleb128 .LEHB74-.LFB3862
	.uleb128 .LEHE74-.LEHB74
	.uleb128 .L258-.LFB3862
	.uleb128 0
	.uleb128 .LEHB75-.LFB3862
	.uleb128 .LEHE75-.LEHB75
	.uleb128 0
	.uleb128 0
.LLSDACSE3862:
	.text
	.seh_endproc
	.def	_ZNSt4pairISt8functionIFbvEENSt7__cxx1112basic_stringIcSt11char_traitsIcESaIcEEEEC1IZ4mainEUlvE36_RA19_KcLb1EEEOT_OT0_;	.scl	3;	.type	32;	.endef
	.set	_ZNSt4pairISt8functionIFbvEENSt7__cxx1112basic_stringIcSt11char_traitsIcESaIcEEEEC1IZ4mainEUlvE36_RA19_KcLb1EEEOT_OT0_,_ZNSt4pairISt8functionIFbvEENSt7__cxx1112basic_stringIcSt11char_traitsIcESaIcEEEEC2IZ4mainEUlvE36_RA19_KcLb1EEEOT_OT0_
	.align 2
	.def	_ZNSt4pairISt8functionIFbvEENSt7__cxx1112basic_stringIcSt11char_traitsIcESaIcEEEEC2IZ4mainEUlvE37_RA19_KcLb1EEEOT_OT0_;	.scl	3;	.type	32;	.endef
	.seh_proc	_ZNSt4pairISt8functionIFbvEENSt7__cxx1112basic_stringIcSt11char_traitsIcESaIcEEEEC2IZ4mainEUlvE37_RA19_KcLb1EEEOT_OT0_
_ZNSt4pairISt8functionIFbvEENSt7__cxx1112basic_stringIcSt11char_traitsIcESaIcEEEEC2IZ4mainEUlvE37_RA19_KcLb1EEEOT_OT0_:
.LFB3865:
	pushq	%rbp
	.seh_pushreg	%rbp
	pushq	%rbx
	.seh_pushreg	%rbx
	subq	$56, %rsp
	.seh_stackalloc	56
	leaq	48(%rsp), %rbp
	.seh_setframe	%rbp, 48
	.seh_endprologue
	movq	%rcx, 32(%rbp)
	movq	%rdx, 40(%rbp)
	movq	%r8, 48(%rbp)
	movq	32(%rbp), %rbx
	movq	40(%rbp), %rax
	movq	%rax, %rcx
	call	_ZSt7forwardIZ4mainEUlvE37_EOT_RNSt16remove_referenceIS1_E4typeE
	movq	%rax, %rdx
	movq	%rbx, %rcx
	call	_ZNSt8functionIFbvEEC1IZ4mainEUlvE37_vEEOT_
	movq	32(%rbp), %rax
	leaq	32(%rax), %rbx
	leaq	-1(%rbp), %rax
	movq	%rax, %rcx
	call	_ZNSaIcEC1Ev
	movq	48(%rbp), %rax
	movq	%rax, %rcx
	call	_ZSt7forwardIRA19_KcEOT_RNSt16remove_referenceIS3_E4typeE
	leaq	-1(%rbp), %rdx
	movq	%rdx, %r8
	movq	%rax, %rdx
	movq	%rbx, %rcx
.LEHB76:
	call	_ZNSt7__cxx1112basic_stringIcSt11char_traitsIcESaIcEEC1IS3_EEPKcRKS3_
.LEHE76:
	leaq	-1(%rbp), %rax
	movq	%rax, %rcx
	call	_ZNSaIcED1Ev
	jmp	.L263
.L262:
	movq	%rax, %rbx
	leaq	-1(%rbp), %rax
	movq	%rax, %rcx
	call	_ZNSaIcED1Ev
	movq	32(%rbp), %rax
	movq	%rax, %rcx
	call	_ZNSt8functionIFbvEED1Ev
	movq	%rbx, %rax
	movq	%rax, %rcx
.LEHB77:
	call	_Unwind_Resume
	nop
.LEHE77:
.L263:
	addq	$56, %rsp
	popq	%rbx
	popq	%rbp
	ret
	.seh_handler	__gxx_personality_seh0, @unwind, @except
	.seh_handlerdata
.LLSDA3865:
	.byte	0xff
	.byte	0xff
	.byte	0x1
	.uleb128 .LLSDACSE3865-.LLSDACSB3865
.LLSDACSB3865:
	.uleb128 .LEHB76-.LFB3865
	.uleb128 .LEHE76-.LEHB76
	.uleb128 .L262-.LFB3865
	.uleb128 0
	.uleb128 .LEHB77-.LFB3865
	.uleb128 .LEHE77-.LEHB77
	.uleb128 0
	.uleb128 0
.LLSDACSE3865:
	.text
	.seh_endproc
	.def	_ZNSt4pairISt8functionIFbvEENSt7__cxx1112basic_stringIcSt11char_traitsIcESaIcEEEEC1IZ4mainEUlvE37_RA19_KcLb1EEEOT_OT0_;	.scl	3;	.type	32;	.endef
	.set	_ZNSt4pairISt8functionIFbvEENSt7__cxx1112basic_stringIcSt11char_traitsIcESaIcEEEEC1IZ4mainEUlvE37_RA19_KcLb1EEEOT_OT0_,_ZNSt4pairISt8functionIFbvEENSt7__cxx1112basic_stringIcSt11char_traitsIcESaIcEEEEC2IZ4mainEUlvE37_RA19_KcLb1EEEOT_OT0_
	.align 2
	.def	_ZNSt4pairISt8functionIFbvEENSt7__cxx1112basic_stringIcSt11char_traitsIcESaIcEEEEC2IZ4mainEUlvE38_RA29_KcLb1EEEOT_OT0_;	.scl	3;	.type	32;	.endef
	.seh_proc	_ZNSt4pairISt8functionIFbvEENSt7__cxx1112basic_stringIcSt11char_traitsIcESaIcEEEEC2IZ4mainEUlvE38_RA29_KcLb1EEEOT_OT0_
_ZNSt4pairISt8functionIFbvEENSt7__cxx1112basic_stringIcSt11char_traitsIcESaIcEEEEC2IZ4mainEUlvE38_RA29_KcLb1EEEOT_OT0_:
.LFB3868:
	pushq	%rbp
	.seh_pushreg	%rbp
	pushq	%rbx
	.seh_pushreg	%rbx
	subq	$56, %rsp
	.seh_stackalloc	56
	leaq	48(%rsp), %rbp
	.seh_setframe	%rbp, 48
	.seh_endprologue
	movq	%rcx, 32(%rbp)
	movq	%rdx, 40(%rbp)
	movq	%r8, 48(%rbp)
	movq	32(%rbp), %rbx
	movq	40(%rbp), %rax
	movq	%rax, %rcx
	call	_ZSt7forwardIZ4mainEUlvE38_EOT_RNSt16remove_referenceIS1_E4typeE
	movq	%rax, %rdx
	movq	%rbx, %rcx
	call	_ZNSt8functionIFbvEEC1IZ4mainEUlvE38_vEEOT_
	movq	32(%rbp), %rax
	leaq	32(%rax), %rbx
	leaq	-1(%rbp), %rax
	movq	%rax, %rcx
	call	_ZNSaIcEC1Ev
	movq	48(%rbp), %rax
	movq	%rax, %rcx
	call	_ZSt7forwardIRA29_KcEOT_RNSt16remove_referenceIS3_E4typeE
	leaq	-1(%rbp), %rdx
	movq	%rdx, %r8
	movq	%rax, %rdx
	movq	%rbx, %rcx
.LEHB78:
	call	_ZNSt7__cxx1112basic_stringIcSt11char_traitsIcESaIcEEC1IS3_EEPKcRKS3_
.LEHE78:
	leaq	-1(%rbp), %rax
	movq	%rax, %rcx
	call	_ZNSaIcED1Ev
	jmp	.L267
.L266:
	movq	%rax, %rbx
	leaq	-1(%rbp), %rax
	movq	%rax, %rcx
	call	_ZNSaIcED1Ev
	movq	32(%rbp), %rax
	movq	%rax, %rcx
	call	_ZNSt8functionIFbvEED1Ev
	movq	%rbx, %rax
	movq	%rax, %rcx
.LEHB79:
	call	_Unwind_Resume
	nop
.LEHE79:
.L267:
	addq	$56, %rsp
	popq	%rbx
	popq	%rbp
	ret
	.seh_handler	__gxx_personality_seh0, @unwind, @except
	.seh_handlerdata
.LLSDA3868:
	.byte	0xff
	.byte	0xff
	.byte	0x1
	.uleb128 .LLSDACSE3868-.LLSDACSB3868
.LLSDACSB3868:
	.uleb128 .LEHB78-.LFB3868
	.uleb128 .LEHE78-.LEHB78
	.uleb128 .L266-.LFB3868
	.uleb128 0
	.uleb128 .LEHB79-.LFB3868
	.uleb128 .LEHE79-.LEHB79
	.uleb128 0
	.uleb128 0
.LLSDACSE3868:
	.text
	.seh_endproc
	.def	_ZNSt4pairISt8functionIFbvEENSt7__cxx1112basic_stringIcSt11char_traitsIcESaIcEEEEC1IZ4mainEUlvE38_RA29_KcLb1EEEOT_OT0_;	.scl	3;	.type	32;	.endef
	.set	_ZNSt4pairISt8functionIFbvEENSt7__cxx1112basic_stringIcSt11char_traitsIcESaIcEEEEC1IZ4mainEUlvE38_RA29_KcLb1EEEOT_OT0_,_ZNSt4pairISt8functionIFbvEENSt7__cxx1112basic_stringIcSt11char_traitsIcESaIcEEEEC2IZ4mainEUlvE38_RA29_KcLb1EEEOT_OT0_
	.align 2
	.def	_ZNSt4pairISt8functionIFbvEENSt7__cxx1112basic_stringIcSt11char_traitsIcESaIcEEEEC2IZ4mainEUlvE39_RA29_KcLb1EEEOT_OT0_;	.scl	3;	.type	32;	.endef
	.seh_proc	_ZNSt4pairISt8functionIFbvEENSt7__cxx1112basic_stringIcSt11char_traitsIcESaIcEEEEC2IZ4mainEUlvE39_RA29_KcLb1EEEOT_OT0_
_ZNSt4pairISt8functionIFbvEENSt7__cxx1112basic_stringIcSt11char_traitsIcESaIcEEEEC2IZ4mainEUlvE39_RA29_KcLb1EEEOT_OT0_:
.LFB3871:
	pushq	%rbp
	.seh_pushreg	%rbp
	pushq	%rbx
	.seh_pushreg	%rbx
	subq	$56, %rsp
	.seh_stackalloc	56
	leaq	48(%rsp), %rbp
	.seh_setframe	%rbp, 48
	.seh_endprologue
	movq	%rcx, 32(%rbp)
	movq	%rdx, 40(%rbp)
	movq	%r8, 48(%rbp)
	movq	32(%rbp), %rbx
	movq	40(%rbp), %rax
	movq	%rax, %rcx
	call	_ZSt7forwardIZ4mainEUlvE39_EOT_RNSt16remove_referenceIS1_E4typeE
	movq	%rax, %rdx
	movq	%rbx, %rcx
	call	_ZNSt8functionIFbvEEC1IZ4mainEUlvE39_vEEOT_
	movq	32(%rbp), %rax
	leaq	32(%rax), %rbx
	leaq	-1(%rbp), %rax
	movq	%rax, %rcx
	call	_ZNSaIcEC1Ev
	movq	48(%rbp), %rax
	movq	%rax, %rcx
	call	_ZSt7forwardIRA29_KcEOT_RNSt16remove_referenceIS3_E4typeE
	leaq	-1(%rbp), %rdx
	movq	%rdx, %r8
	movq	%rax, %rdx
	movq	%rbx, %rcx
.LEHB80:
	call	_ZNSt7__cxx1112basic_stringIcSt11char_traitsIcESaIcEEC1IS3_EEPKcRKS3_
.LEHE80:
	leaq	-1(%rbp), %rax
	movq	%rax, %rcx
	call	_ZNSaIcED1Ev
	jmp	.L271
.L270:
	movq	%rax, %rbx
	leaq	-1(%rbp), %rax
	movq	%rax, %rcx
	call	_ZNSaIcED1Ev
	movq	32(%rbp), %rax
	movq	%rax, %rcx
	call	_ZNSt8functionIFbvEED1Ev
	movq	%rbx, %rax
	movq	%rax, %rcx
.LEHB81:
	call	_Unwind_Resume
	nop
.LEHE81:
.L271:
	addq	$56, %rsp
	popq	%rbx
	popq	%rbp
	ret
	.seh_handler	__gxx_personality_seh0, @unwind, @except
	.seh_handlerdata
.LLSDA3871:
	.byte	0xff
	.byte	0xff
	.byte	0x1
	.uleb128 .LLSDACSE3871-.LLSDACSB3871
.LLSDACSB3871:
	.uleb128 .LEHB80-.LFB3871
	.uleb128 .LEHE80-.LEHB80
	.uleb128 .L270-.LFB3871
	.uleb128 0
	.uleb128 .LEHB81-.LFB3871
	.uleb128 .LEHE81-.LEHB81
	.uleb128 0
	.uleb128 0
.LLSDACSE3871:
	.text
	.seh_endproc
	.def	_ZNSt4pairISt8functionIFbvEENSt7__cxx1112basic_stringIcSt11char_traitsIcESaIcEEEEC1IZ4mainEUlvE39_RA29_KcLb1EEEOT_OT0_;	.scl	3;	.type	32;	.endef
	.set	_ZNSt4pairISt8functionIFbvEENSt7__cxx1112basic_stringIcSt11char_traitsIcESaIcEEEEC1IZ4mainEUlvE39_RA29_KcLb1EEEOT_OT0_,_ZNSt4pairISt8functionIFbvEENSt7__cxx1112basic_stringIcSt11char_traitsIcESaIcEEEEC2IZ4mainEUlvE39_RA29_KcLb1EEEOT_OT0_
	.align 2
	.def	_ZNSt4pairISt8functionIFbvEENSt7__cxx1112basic_stringIcSt11char_traitsIcESaIcEEEEC2IZ4mainEUlvE40_RA19_KcLb1EEEOT_OT0_;	.scl	3;	.type	32;	.endef
	.seh_proc	_ZNSt4pairISt8functionIFbvEENSt7__cxx1112basic_stringIcSt11char_traitsIcESaIcEEEEC2IZ4mainEUlvE40_RA19_KcLb1EEEOT_OT0_
_ZNSt4pairISt8functionIFbvEENSt7__cxx1112basic_stringIcSt11char_traitsIcESaIcEEEEC2IZ4mainEUlvE40_RA19_KcLb1EEEOT_OT0_:
.LFB3874:
	pushq	%rbp
	.seh_pushreg	%rbp
	pushq	%rbx
	.seh_pushreg	%rbx
	subq	$56, %rsp
	.seh_stackalloc	56
	leaq	48(%rsp), %rbp
	.seh_setframe	%rbp, 48
	.seh_endprologue
	movq	%rcx, 32(%rbp)
	movq	%rdx, 40(%rbp)
	movq	%r8, 48(%rbp)
	movq	32(%rbp), %rbx
	movq	40(%rbp), %rax
	movq	%rax, %rcx
	call	_ZSt7forwardIZ4mainEUlvE40_EOT_RNSt16remove_referenceIS1_E4typeE
	movq	%rax, %rdx
	movq	%rbx, %rcx
	call	_ZNSt8functionIFbvEEC1IZ4mainEUlvE40_vEEOT_
	movq	32(%rbp), %rax
	leaq	32(%rax), %rbx
	leaq	-1(%rbp), %rax
	movq	%rax, %rcx
	call	_ZNSaIcEC1Ev
	movq	48(%rbp), %rax
	movq	%rax, %rcx
	call	_ZSt7forwardIRA19_KcEOT_RNSt16remove_referenceIS3_E4typeE
	leaq	-1(%rbp), %rdx
	movq	%rdx, %r8
	movq	%rax, %rdx
	movq	%rbx, %rcx
.LEHB82:
	call	_ZNSt7__cxx1112basic_stringIcSt11char_traitsIcESaIcEEC1IS3_EEPKcRKS3_
.LEHE82:
	leaq	-1(%rbp), %rax
	movq	%rax, %rcx
	call	_ZNSaIcED1Ev
	jmp	.L275
.L274:
	movq	%rax, %rbx
	leaq	-1(%rbp), %rax
	movq	%rax, %rcx
	call	_ZNSaIcED1Ev
	movq	32(%rbp), %rax
	movq	%rax, %rcx
	call	_ZNSt8functionIFbvEED1Ev
	movq	%rbx, %rax
	movq	%rax, %rcx
.LEHB83:
	call	_Unwind_Resume
	nop
.LEHE83:
.L275:
	addq	$56, %rsp
	popq	%rbx
	popq	%rbp
	ret
	.seh_handler	__gxx_personality_seh0, @unwind, @except
	.seh_handlerdata
.LLSDA3874:
	.byte	0xff
	.byte	0xff
	.byte	0x1
	.uleb128 .LLSDACSE3874-.LLSDACSB3874
.LLSDACSB3874:
	.uleb128 .LEHB82-.LFB3874
	.uleb128 .LEHE82-.LEHB82
	.uleb128 .L274-.LFB3874
	.uleb128 0
	.uleb128 .LEHB83-.LFB3874
	.uleb128 .LEHE83-.LEHB83
	.uleb128 0
	.uleb128 0
.LLSDACSE3874:
	.text
	.seh_endproc
	.def	_ZNSt4pairISt8functionIFbvEENSt7__cxx1112basic_stringIcSt11char_traitsIcESaIcEEEEC1IZ4mainEUlvE40_RA19_KcLb1EEEOT_OT0_;	.scl	3;	.type	32;	.endef
	.set	_ZNSt4pairISt8functionIFbvEENSt7__cxx1112basic_stringIcSt11char_traitsIcESaIcEEEEC1IZ4mainEUlvE40_RA19_KcLb1EEEOT_OT0_,_ZNSt4pairISt8functionIFbvEENSt7__cxx1112basic_stringIcSt11char_traitsIcESaIcEEEEC2IZ4mainEUlvE40_RA19_KcLb1EEEOT_OT0_
	.align 2
	.def	_ZNSt4pairISt8functionIFbvEENSt7__cxx1112basic_stringIcSt11char_traitsIcESaIcEEEEC2IZ4mainEUlvE41_RA29_KcLb1EEEOT_OT0_;	.scl	3;	.type	32;	.endef
	.seh_proc	_ZNSt4pairISt8functionIFbvEENSt7__cxx1112basic_stringIcSt11char_traitsIcESaIcEEEEC2IZ4mainEUlvE41_RA29_KcLb1EEEOT_OT0_
_ZNSt4pairISt8functionIFbvEENSt7__cxx1112basic_stringIcSt11char_traitsIcESaIcEEEEC2IZ4mainEUlvE41_RA29_KcLb1EEEOT_OT0_:
.LFB3877:
	pushq	%rbp
	.seh_pushreg	%rbp
	pushq	%rbx
	.seh_pushreg	%rbx
	subq	$56, %rsp
	.seh_stackalloc	56
	leaq	48(%rsp), %rbp
	.seh_setframe	%rbp, 48
	.seh_endprologue
	movq	%rcx, 32(%rbp)
	movq	%rdx, 40(%rbp)
	movq	%r8, 48(%rbp)
	movq	32(%rbp), %rbx
	movq	40(%rbp), %rax
	movq	%rax, %rcx
	call	_ZSt7forwardIZ4mainEUlvE41_EOT_RNSt16remove_referenceIS1_E4typeE
	movq	%rax, %rdx
	movq	%rbx, %rcx
	call	_ZNSt8functionIFbvEEC1IZ4mainEUlvE41_vEEOT_
	movq	32(%rbp), %rax
	leaq	32(%rax), %rbx
	leaq	-1(%rbp), %rax
	movq	%rax, %rcx
	call	_ZNSaIcEC1Ev
	movq	48(%rbp), %rax
	movq	%rax, %rcx
	call	_ZSt7forwardIRA29_KcEOT_RNSt16remove_referenceIS3_E4typeE
	leaq	-1(%rbp), %rdx
	movq	%rdx, %r8
	movq	%rax, %rdx
	movq	%rbx, %rcx
.LEHB84:
	call	_ZNSt7__cxx1112basic_stringIcSt11char_traitsIcESaIcEEC1IS3_EEPKcRKS3_
.LEHE84:
	leaq	-1(%rbp), %rax
	movq	%rax, %rcx
	call	_ZNSaIcED1Ev
	jmp	.L279
.L278:
	movq	%rax, %rbx
	leaq	-1(%rbp), %rax
	movq	%rax, %rcx
	call	_ZNSaIcED1Ev
	movq	32(%rbp), %rax
	movq	%rax, %rcx
	call	_ZNSt8functionIFbvEED1Ev
	movq	%rbx, %rax
	movq	%rax, %rcx
.LEHB85:
	call	_Unwind_Resume
	nop
.LEHE85:
.L279:
	addq	$56, %rsp
	popq	%rbx
	popq	%rbp
	ret
	.seh_handler	__gxx_personality_seh0, @unwind, @except
	.seh_handlerdata
.LLSDA3877:
	.byte	0xff
	.byte	0xff
	.byte	0x1
	.uleb128 .LLSDACSE3877-.LLSDACSB3877
.LLSDACSB3877:
	.uleb128 .LEHB84-.LFB3877
	.uleb128 .LEHE84-.LEHB84
	.uleb128 .L278-.LFB3877
	.uleb128 0
	.uleb128 .LEHB85-.LFB3877
	.uleb128 .LEHE85-.LEHB85
	.uleb128 0
	.uleb128 0
.LLSDACSE3877:
	.text
	.seh_endproc
	.def	_ZNSt4pairISt8functionIFbvEENSt7__cxx1112basic_stringIcSt11char_traitsIcESaIcEEEEC1IZ4mainEUlvE41_RA29_KcLb1EEEOT_OT0_;	.scl	3;	.type	32;	.endef
	.set	_ZNSt4pairISt8functionIFbvEENSt7__cxx1112basic_stringIcSt11char_traitsIcESaIcEEEEC1IZ4mainEUlvE41_RA29_KcLb1EEEOT_OT0_,_ZNSt4pairISt8functionIFbvEENSt7__cxx1112basic_stringIcSt11char_traitsIcESaIcEEEEC2IZ4mainEUlvE41_RA29_KcLb1EEEOT_OT0_
	.section	.text$_ZNSt7__cxx114listISt4pairISt8functionIFbvEENS_12basic_stringIcSt11char_traitsIcESaIcEEEESaISA_EED1Ev,"x"
	.linkonce discard
	.align 2
	.globl	_ZNSt7__cxx114listISt4pairISt8functionIFbvEENS_12basic_stringIcSt11char_traitsIcESaIcEEEESaISA_EED1Ev
	.def	_ZNSt7__cxx114listISt4pairISt8functionIFbvEENS_12basic_stringIcSt11char_traitsIcESaIcEEEESaISA_EED1Ev;	.scl	2;	.type	32;	.endef
	.seh_proc	_ZNSt7__cxx114listISt4pairISt8functionIFbvEENS_12basic_stringIcSt11char_traitsIcESaIcEEEESaISA_EED1Ev
_ZNSt7__cxx114listISt4pairISt8functionIFbvEENS_12basic_stringIcSt11char_traitsIcESaIcEEEESaISA_EED1Ev:
.LFB3881:
	pushq	%rbp
	.seh_pushreg	%rbp
	movq	%rsp, %rbp
	.seh_setframe	%rbp, 0
	subq	$32, %rsp
	.seh_stackalloc	32
	.seh_endprologue
	movq	%rcx, 16(%rbp)
	movq	16(%rbp), %rax
	movq	%rax, %rcx
	call	_ZNSt7__cxx1110_List_baseISt4pairISt8functionIFbvEENS_12basic_stringIcSt11char_traitsIcESaIcEEEESaISA_EED2Ev
	nop
	addq	$32, %rsp
	popq	%rbp
	ret
	.seh_endproc
	.text
	.align 2
	.def	_ZZ4mainENKUlvE42_clEv;	.scl	3;	.type	32;	.endef
	.seh_proc	_ZZ4mainENKUlvE42_clEv
_ZZ4mainENKUlvE42_clEv:
.LFB3882:
	pushq	%rbp
	.seh_pushreg	%rbp
	movq	%rsp, %rbp
	.seh_setframe	%rbp, 0
	.seh_endprologue
	movq	%rcx, 16(%rbp)
	movq	.refptr.__cpu_model(%rip), %rax
	movl	12(%rax), %eax
	andl	$1, %eax
	popq	%rbp
	ret
	.seh_endproc
	.align 2
	.def	_ZZ4mainENKUlvE43_clEv;	.scl	3;	.type	32;	.endef
	.seh_proc	_ZZ4mainENKUlvE43_clEv
_ZZ4mainENKUlvE43_clEv:
.LFB3885:
	pushq	%rbp
	.seh_pushreg	%rbp
	movq	%rsp, %rbp
	.seh_setframe	%rbp, 0
	.seh_endprologue
	movq	%rcx, 16(%rbp)
	movq	.refptr.__cpu_model(%rip), %rax
	movl	12(%rax), %eax
	sarl	%eax
	andl	$1, %eax
	popq	%rbp
	ret
	.seh_endproc
	.align 2
	.def	_ZZ4mainENKUlvE44_clEv;	.scl	3;	.type	32;	.endef
	.seh_proc	_ZZ4mainENKUlvE44_clEv
_ZZ4mainENKUlvE44_clEv:
.LFB3888:
	pushq	%rbp
	.seh_pushreg	%rbp
	movq	%rsp, %rbp
	.seh_setframe	%rbp, 0
	.seh_endprologue
	movq	%rcx, 16(%rbp)
	movq	.refptr.__cpu_model(%rip), %rax
	movl	12(%rax), %eax
	sarl	$2, %eax
	andl	$1, %eax
	popq	%rbp
	ret
	.seh_endproc
	.align 2
	.def	_ZZ4mainENKUlvE45_clEv;	.scl	3;	.type	32;	.endef
	.seh_proc	_ZZ4mainENKUlvE45_clEv
_ZZ4mainENKUlvE45_clEv:
.LFB3891:
	pushq	%rbp
	.seh_pushreg	%rbp
	movq	%rsp, %rbp
	.seh_setframe	%rbp, 0
	.seh_endprologue
	movq	%rcx, 16(%rbp)
	movq	.refptr.__cpu_model(%rip), %rax
	movl	12(%rax), %eax
	sarl	$3, %eax
	andl	$1, %eax
	popq	%rbp
	ret
	.seh_endproc
	.align 2
	.def	_ZZ4mainENKUlvE46_clEv;	.scl	3;	.type	32;	.endef
	.seh_proc	_ZZ4mainENKUlvE46_clEv
_ZZ4mainENKUlvE46_clEv:
.LFB3894:
	pushq	%rbp
	.seh_pushreg	%rbp
	movq	%rsp, %rbp
	.seh_setframe	%rbp, 0
	.seh_endprologue
	movq	%rcx, 16(%rbp)
	movq	.refptr.__cpu_model(%rip), %rax
	movl	12(%rax), %eax
	sarl	$4, %eax
	andl	$1, %eax
	popq	%rbp
	ret
	.seh_endproc
	.align 2
	.def	_ZZ4mainENKUlvE47_clEv;	.scl	3;	.type	32;	.endef
	.seh_proc	_ZZ4mainENKUlvE47_clEv
_ZZ4mainENKUlvE47_clEv:
.LFB3897:
	pushq	%rbp
	.seh_pushreg	%rbp
	movq	%rsp, %rbp
	.seh_setframe	%rbp, 0
	.seh_endprologue
	movq	%rcx, 16(%rbp)
	movq	.refptr.__cpu_model(%rip), %rax
	movl	12(%rax), %eax
	sarl	$5, %eax
	andl	$1, %eax
	popq	%rbp
	ret
	.seh_endproc
	.align 2
	.def	_ZZ4mainENKUlvE48_clEv;	.scl	3;	.type	32;	.endef
	.seh_proc	_ZZ4mainENKUlvE48_clEv
_ZZ4mainENKUlvE48_clEv:
.LFB3900:
	pushq	%rbp
	.seh_pushreg	%rbp
	movq	%rsp, %rbp
	.seh_setframe	%rbp, 0
	.seh_endprologue
	movq	%rcx, 16(%rbp)
	movq	.refptr.__cpu_model(%rip), %rax
	movl	12(%rax), %eax
	sarl	$6, %eax
	andl	$1, %eax
	popq	%rbp
	ret
	.seh_endproc
	.align 2
	.def	_ZZ4mainENKUlvE49_clEv;	.scl	3;	.type	32;	.endef
	.seh_proc	_ZZ4mainENKUlvE49_clEv
_ZZ4mainENKUlvE49_clEv:
.LFB3903:
	pushq	%rbp
	.seh_pushreg	%rbp
	movq	%rsp, %rbp
	.seh_setframe	%rbp, 0
	.seh_endprologue
	movq	%rcx, 16(%rbp)
	movq	.refptr.__cpu_model(%rip), %rax
	movl	12(%rax), %eax
	sarl	$7, %eax
	andl	$1, %eax
	popq	%rbp
	ret
	.seh_endproc
	.align 2
	.def	_ZZ4mainENKUlvE50_clEv;	.scl	3;	.type	32;	.endef
	.seh_proc	_ZZ4mainENKUlvE50_clEv
_ZZ4mainENKUlvE50_clEv:
.LFB3906:
	pushq	%rbp
	.seh_pushreg	%rbp
	movq	%rsp, %rbp
	.seh_setframe	%rbp, 0
	.seh_endprologue
	movq	%rcx, 16(%rbp)
	movq	.refptr.__cpu_model(%rip), %rax
	movl	12(%rax), %eax
	sarl	$8, %eax
	andl	$1, %eax
	popq	%rbp
	ret
	.seh_endproc
	.align 2
	.def	_ZZ4mainENKUlvE51_clEv;	.scl	3;	.type	32;	.endef
	.seh_proc	_ZZ4mainENKUlvE51_clEv
_ZZ4mainENKUlvE51_clEv:
.LFB3909:
	pushq	%rbp
	.seh_pushreg	%rbp
	movq	%rsp, %rbp
	.seh_setframe	%rbp, 0
	.seh_endprologue
	movq	%rcx, 16(%rbp)
	movq	.refptr.__cpu_model(%rip), %rax
	movl	12(%rax), %eax
	sarl	$9, %eax
	andl	$1, %eax
	popq	%rbp
	ret
	.seh_endproc
	.align 2
	.def	_ZZ4mainENKUlvE52_clEv;	.scl	3;	.type	32;	.endef
	.seh_proc	_ZZ4mainENKUlvE52_clEv
_ZZ4mainENKUlvE52_clEv:
.LFB3912:
	pushq	%rbp
	.seh_pushreg	%rbp
	movq	%rsp, %rbp
	.seh_setframe	%rbp, 0
	.seh_endprologue
	movq	%rcx, 16(%rbp)
	movq	.refptr.__cpu_model(%rip), %rax
	movl	12(%rax), %eax
	sarl	$10, %eax
	andl	$1, %eax
	popq	%rbp
	ret
	.seh_endproc
	.align 2
	.def	_ZZ4mainENKUlvE53_clEv;	.scl	3;	.type	32;	.endef
	.seh_proc	_ZZ4mainENKUlvE53_clEv
_ZZ4mainENKUlvE53_clEv:
.LFB3915:
	pushq	%rbp
	.seh_pushreg	%rbp
	movq	%rsp, %rbp
	.seh_setframe	%rbp, 0
	.seh_endprologue
	movq	%rcx, 16(%rbp)
	movq	.refptr.__cpu_model(%rip), %rax
	movl	12(%rax), %eax
	sarl	$11, %eax
	andl	$1, %eax
	popq	%rbp
	ret
	.seh_endproc
	.align 2
	.def	_ZZ4mainENKUlvE54_clEv;	.scl	3;	.type	32;	.endef
	.seh_proc	_ZZ4mainENKUlvE54_clEv
_ZZ4mainENKUlvE54_clEv:
.LFB3918:
	pushq	%rbp
	.seh_pushreg	%rbp
	movq	%rsp, %rbp
	.seh_setframe	%rbp, 0
	.seh_endprologue
	movq	%rcx, 16(%rbp)
	movq	.refptr.__cpu_model(%rip), %rax
	movl	12(%rax), %eax
	sarl	$12, %eax
	andl	$1, %eax
	popq	%rbp
	ret
	.seh_endproc
	.align 2
	.def	_ZZ4mainENKUlvE55_clEv;	.scl	3;	.type	32;	.endef
	.seh_proc	_ZZ4mainENKUlvE55_clEv
_ZZ4mainENKUlvE55_clEv:
.LFB3921:
	pushq	%rbp
	.seh_pushreg	%rbp
	movq	%rsp, %rbp
	.seh_setframe	%rbp, 0
	.seh_endprologue
	movq	%rcx, 16(%rbp)
	movq	.refptr.__cpu_model(%rip), %rax
	movl	12(%rax), %eax
	sarl	$13, %eax
	andl	$1, %eax
	popq	%rbp
	ret
	.seh_endproc
	.align 2
	.def	_ZZ4mainENKUlvE56_clEv;	.scl	3;	.type	32;	.endef
	.seh_proc	_ZZ4mainENKUlvE56_clEv
_ZZ4mainENKUlvE56_clEv:
.LFB3924:
	pushq	%rbp
	.seh_pushreg	%rbp
	movq	%rsp, %rbp
	.seh_setframe	%rbp, 0
	.seh_endprologue
	movq	%rcx, 16(%rbp)
	movq	.refptr.__cpu_model(%rip), %rax
	movl	12(%rax), %eax
	sarl	$14, %eax
	andl	$1, %eax
	popq	%rbp
	ret
	.seh_endproc
	.align 2
	.def	_ZZ4mainENKUlvE57_clEv;	.scl	3;	.type	32;	.endef
	.seh_proc	_ZZ4mainENKUlvE57_clEv
_ZZ4mainENKUlvE57_clEv:
.LFB3927:
	pushq	%rbp
	.seh_pushreg	%rbp
	movq	%rsp, %rbp
	.seh_setframe	%rbp, 0
	.seh_endprologue
	movq	%rcx, 16(%rbp)
	movq	.refptr.__cpu_model(%rip), %rax
	movl	12(%rax), %eax
	sarl	$15, %eax
	andl	$1, %eax
	popq	%rbp
	ret
	.seh_endproc
	.align 2
	.def	_ZZ4mainENKUlvE58_clEv;	.scl	3;	.type	32;	.endef
	.seh_proc	_ZZ4mainENKUlvE58_clEv
_ZZ4mainENKUlvE58_clEv:
.LFB3930:
	pushq	%rbp
	.seh_pushreg	%rbp
	movq	%rsp, %rbp
	.seh_setframe	%rbp, 0
	.seh_endprologue
	movq	%rcx, 16(%rbp)
	movq	.refptr.__cpu_model(%rip), %rax
	movl	12(%rax), %eax
	sarl	$16, %eax
	andl	$1, %eax
	popq	%rbp
	ret
	.seh_endproc
	.align 2
	.def	_ZZ4mainENKUlvE59_clEv;	.scl	3;	.type	32;	.endef
	.seh_proc	_ZZ4mainENKUlvE59_clEv
_ZZ4mainENKUlvE59_clEv:
.LFB3933:
	pushq	%rbp
	.seh_pushreg	%rbp
	movq	%rsp, %rbp
	.seh_setframe	%rbp, 0
	.seh_endprologue
	movq	%rcx, 16(%rbp)
	movq	.refptr.__cpu_model(%rip), %rax
	movl	12(%rax), %eax
	sarl	$17, %eax
	andl	$1, %eax
	popq	%rbp
	ret
	.seh_endproc
	.align 2
	.def	_ZZ4mainENKUlvE60_clEv;	.scl	3;	.type	32;	.endef
	.seh_proc	_ZZ4mainENKUlvE60_clEv
_ZZ4mainENKUlvE60_clEv:
.LFB3936:
	pushq	%rbp
	.seh_pushreg	%rbp
	movq	%rsp, %rbp
	.seh_setframe	%rbp, 0
	.seh_endprologue
	movq	%rcx, 16(%rbp)
	movq	.refptr.__cpu_model(%rip), %rax
	movl	12(%rax), %eax
	sarl	$18, %eax
	andl	$1, %eax
	popq	%rbp
	ret
	.seh_endproc
	.align 2
	.def	_ZZ4mainENKUlvE61_clEv;	.scl	3;	.type	32;	.endef
	.seh_proc	_ZZ4mainENKUlvE61_clEv
_ZZ4mainENKUlvE61_clEv:
.LFB3939:
	pushq	%rbp
	.seh_pushreg	%rbp
	movq	%rsp, %rbp
	.seh_setframe	%rbp, 0
	.seh_endprologue
	movq	%rcx, 16(%rbp)
	movq	.refptr.__cpu_model(%rip), %rax
	movl	12(%rax), %eax
	sarl	$19, %eax
	andl	$1, %eax
	popq	%rbp
	ret
	.seh_endproc
	.align 2
	.def	_ZZ4mainENKUlvE62_clEv;	.scl	3;	.type	32;	.endef
	.seh_proc	_ZZ4mainENKUlvE62_clEv
_ZZ4mainENKUlvE62_clEv:
.LFB3942:
	pushq	%rbp
	.seh_pushreg	%rbp
	movq	%rsp, %rbp
	.seh_setframe	%rbp, 0
	.seh_endprologue
	movq	%rcx, 16(%rbp)
	movq	.refptr.__cpu_model(%rip), %rax
	movl	12(%rax), %eax
	sarl	$20, %eax
	andl	$1, %eax
	popq	%rbp
	ret
	.seh_endproc
	.align 2
	.def	_ZZ4mainENKUlvE63_clEv;	.scl	3;	.type	32;	.endef
	.seh_proc	_ZZ4mainENKUlvE63_clEv
_ZZ4mainENKUlvE63_clEv:
.LFB3945:
	pushq	%rbp
	.seh_pushreg	%rbp
	movq	%rsp, %rbp
	.seh_setframe	%rbp, 0
	.seh_endprologue
	movq	%rcx, 16(%rbp)
	movq	.refptr.__cpu_model(%rip), %rax
	movl	12(%rax), %eax
	sarl	$21, %eax
	andl	$1, %eax
	popq	%rbp
	ret
	.seh_endproc
	.align 2
	.def	_ZZ4mainENKUlvE64_clEv;	.scl	3;	.type	32;	.endef
	.seh_proc	_ZZ4mainENKUlvE64_clEv
_ZZ4mainENKUlvE64_clEv:
.LFB3948:
	pushq	%rbp
	.seh_pushreg	%rbp
	movq	%rsp, %rbp
	.seh_setframe	%rbp, 0
	.seh_endprologue
	movq	%rcx, 16(%rbp)
	movq	.refptr.__cpu_model(%rip), %rax
	movl	12(%rax), %eax
	sarl	$22, %eax
	andl	$1, %eax
	popq	%rbp
	ret
	.seh_endproc
	.align 2
	.def	_ZZ4mainENKUlvE65_clEv;	.scl	3;	.type	32;	.endef
	.seh_proc	_ZZ4mainENKUlvE65_clEv
_ZZ4mainENKUlvE65_clEv:
.LFB3951:
	pushq	%rbp
	.seh_pushreg	%rbp
	movq	%rsp, %rbp
	.seh_setframe	%rbp, 0
	.seh_endprologue
	movq	%rcx, 16(%rbp)
	movq	.refptr.__cpu_model(%rip), %rax
	movl	12(%rax), %eax
	sarl	$23, %eax
	andl	$1, %eax
	popq	%rbp
	ret
	.seh_endproc
	.align 2
	.def	_ZZ4mainENKUlvE66_clEv;	.scl	3;	.type	32;	.endef
	.seh_proc	_ZZ4mainENKUlvE66_clEv
_ZZ4mainENKUlvE66_clEv:
.LFB3954:
	pushq	%rbp
	.seh_pushreg	%rbp
	movq	%rsp, %rbp
	.seh_setframe	%rbp, 0
	.seh_endprologue
	movq	%rcx, 16(%rbp)
	movq	.refptr.__cpu_model(%rip), %rax
	movl	12(%rax), %eax
	sarl	$24, %eax
	andl	$1, %eax
	popq	%rbp
	ret
	.seh_endproc
	.align 2
	.def	_ZZ4mainENKUlvE67_clEv;	.scl	3;	.type	32;	.endef
	.seh_proc	_ZZ4mainENKUlvE67_clEv
_ZZ4mainENKUlvE67_clEv:
.LFB3957:
	pushq	%rbp
	.seh_pushreg	%rbp
	movq	%rsp, %rbp
	.seh_setframe	%rbp, 0
	.seh_endprologue
	movq	%rcx, 16(%rbp)
	movq	.refptr.__cpu_model(%rip), %rax
	movl	12(%rax), %eax
	sarl	$25, %eax
	andl	$1, %eax
	popq	%rbp
	ret
	.seh_endproc
	.align 2
	.def	_ZZ4mainENKUlvE68_clEv;	.scl	3;	.type	32;	.endef
	.seh_proc	_ZZ4mainENKUlvE68_clEv
_ZZ4mainENKUlvE68_clEv:
.LFB3960:
	pushq	%rbp
	.seh_pushreg	%rbp
	movq	%rsp, %rbp
	.seh_setframe	%rbp, 0
	.seh_endprologue
	movq	%rcx, 16(%rbp)
	movq	.refptr.__cpu_model(%rip), %rax
	movl	12(%rax), %eax
	sarl	$26, %eax
	andl	$1, %eax
	popq	%rbp
	ret
	.seh_endproc
	.align 2
	.def	_ZZ4mainENKUlvE69_clEv;	.scl	3;	.type	32;	.endef
	.seh_proc	_ZZ4mainENKUlvE69_clEv
_ZZ4mainENKUlvE69_clEv:
.LFB3963:
	pushq	%rbp
	.seh_pushreg	%rbp
	movq	%rsp, %rbp
	.seh_setframe	%rbp, 0
	.seh_endprologue
	movq	%rcx, 16(%rbp)
	movq	.refptr.__cpu_model(%rip), %rax
	movl	12(%rax), %eax
	sarl	$27, %eax
	andl	$1, %eax
	popq	%rbp
	ret
	.seh_endproc
	.align 2
	.def	_ZZ4mainENKUlvE70_clEv;	.scl	3;	.type	32;	.endef
	.seh_proc	_ZZ4mainENKUlvE70_clEv
_ZZ4mainENKUlvE70_clEv:
.LFB3966:
	pushq	%rbp
	.seh_pushreg	%rbp
	movq	%rsp, %rbp
	.seh_setframe	%rbp, 0
	.seh_endprologue
	movq	%rcx, 16(%rbp)
	movq	.refptr.__cpu_model(%rip), %rax
	movl	12(%rax), %eax
	sarl	$28, %eax
	andl	$1, %eax
	popq	%rbp
	ret
	.seh_endproc
	.align 2
	.def	_ZZ4mainENKUlvE71_clEv;	.scl	3;	.type	32;	.endef
	.seh_proc	_ZZ4mainENKUlvE71_clEv
_ZZ4mainENKUlvE71_clEv:
.LFB3969:
	pushq	%rbp
	.seh_pushreg	%rbp
	movq	%rsp, %rbp
	.seh_setframe	%rbp, 0
	.seh_endprologue
	movq	%rcx, 16(%rbp)
	movq	.refptr.__cpu_model(%rip), %rax
	movl	12(%rax), %eax
	sarl	$29, %eax
	andl	$1, %eax
	popq	%rbp
	ret
	.seh_endproc
	.align 2
	.def	_ZZ4mainENKUlvE72_clEv;	.scl	3;	.type	32;	.endef
	.seh_proc	_ZZ4mainENKUlvE72_clEv
_ZZ4mainENKUlvE72_clEv:
.LFB3972:
	pushq	%rbp
	.seh_pushreg	%rbp
	movq	%rsp, %rbp
	.seh_setframe	%rbp, 0
	.seh_endprologue
	movq	%rcx, 16(%rbp)
	movq	.refptr.__cpu_model(%rip), %rax
	movl	12(%rax), %eax
	sarl	$30, %eax
	andl	$1, %eax
	popq	%rbp
	ret
	.seh_endproc
	.align 2
	.def	_ZZ4mainENKUlvE73_clEv;	.scl	3;	.type	32;	.endef
	.seh_proc	_ZZ4mainENKUlvE73_clEv
_ZZ4mainENKUlvE73_clEv:
.LFB3975:
	pushq	%rbp
	.seh_pushreg	%rbp
	movq	%rsp, %rbp
	.seh_setframe	%rbp, 0
	.seh_endprologue
	movq	%rcx, 16(%rbp)
	movq	.refptr.__cpu_model(%rip), %rax
	movl	12(%rax), %eax
	shrl	$31, %eax
	movzbl	%al, %eax
	testl	%eax, %eax
	setne	%al
	popq	%rbp
	ret
	.seh_endproc
	.align 2
	.def	_ZZ4mainENKUlvE74_clEv;	.scl	3;	.type	32;	.endef
	.seh_proc	_ZZ4mainENKUlvE74_clEv
_ZZ4mainENKUlvE74_clEv:
.LFB3978:
	pushq	%rbp
	.seh_pushreg	%rbp
	movq	%rsp, %rbp
	.seh_setframe	%rbp, 0
	.seh_endprologue
	movq	%rcx, 16(%rbp)
	movq	.refptr.__cpu_features2(%rip), %rax
	movl	(%rax), %eax
	andl	$1, %eax
	popq	%rbp
	ret
	.seh_endproc
	.align 2
	.def	_ZZ4mainENKUlvE75_clEv;	.scl	3;	.type	32;	.endef
	.seh_proc	_ZZ4mainENKUlvE75_clEv
_ZZ4mainENKUlvE75_clEv:
.LFB3981:
	pushq	%rbp
	.seh_pushreg	%rbp
	movq	%rsp, %rbp
	.seh_setframe	%rbp, 0
	.seh_endprologue
	movq	%rcx, 16(%rbp)
	movq	.refptr.__cpu_features2(%rip), %rax
	movl	(%rax), %eax
	sarl	%eax
	andl	$1, %eax
	popq	%rbp
	ret
	.seh_endproc
	.align 2
	.def	_ZZ4mainENKUlvE76_clEv;	.scl	3;	.type	32;	.endef
	.seh_proc	_ZZ4mainENKUlvE76_clEv
_ZZ4mainENKUlvE76_clEv:
.LFB3984:
	pushq	%rbp
	.seh_pushreg	%rbp
	movq	%rsp, %rbp
	.seh_setframe	%rbp, 0
	.seh_endprologue
	movq	%rcx, 16(%rbp)
	movq	.refptr.__cpu_features2(%rip), %rax
	movl	(%rax), %eax
	sarl	$2, %eax
	andl	$1, %eax
	popq	%rbp
	ret
	.seh_endproc
	.align 2
	.def	_ZZ4mainENKUlvE77_clEv;	.scl	3;	.type	32;	.endef
	.seh_proc	_ZZ4mainENKUlvE77_clEv
_ZZ4mainENKUlvE77_clEv:
.LFB3987:
	pushq	%rbp
	.seh_pushreg	%rbp
	movq	%rsp, %rbp
	.seh_setframe	%rbp, 0
	.seh_endprologue
	movq	%rcx, 16(%rbp)
	movq	.refptr.__cpu_features2(%rip), %rax
	movl	(%rax), %eax
	sarl	$3, %eax
	andl	$1, %eax
	popq	%rbp
	ret
	.seh_endproc
	.align 2
	.def	_ZNSt4pairISt8functionIFbvEENSt7__cxx1112basic_stringIcSt11char_traitsIcESaIcEEEEC2IZ4mainEUlvE42_RA17_KcLb1EEEOT_OT0_;	.scl	3;	.type	32;	.endef
	.seh_proc	_ZNSt4pairISt8functionIFbvEENSt7__cxx1112basic_stringIcSt11char_traitsIcESaIcEEEEC2IZ4mainEUlvE42_RA17_KcLb1EEEOT_OT0_
_ZNSt4pairISt8functionIFbvEENSt7__cxx1112basic_stringIcSt11char_traitsIcESaIcEEEEC2IZ4mainEUlvE42_RA17_KcLb1EEEOT_OT0_:
.LFB4135:
	pushq	%rbp
	.seh_pushreg	%rbp
	pushq	%rbx
	.seh_pushreg	%rbx
	subq	$56, %rsp
	.seh_stackalloc	56
	leaq	48(%rsp), %rbp
	.seh_setframe	%rbp, 48
	.seh_endprologue
	movq	%rcx, 32(%rbp)
	movq	%rdx, 40(%rbp)
	movq	%r8, 48(%rbp)
	movq	32(%rbp), %rbx
	movq	40(%rbp), %rax
	movq	%rax, %rcx
	call	_ZSt7forwardIZ4mainEUlvE42_EOT_RNSt16remove_referenceIS1_E4typeE
	movq	%rax, %rdx
	movq	%rbx, %rcx
	call	_ZNSt8functionIFbvEEC1IZ4mainEUlvE42_vEEOT_
	movq	32(%rbp), %rax
	leaq	32(%rax), %rbx
	leaq	-1(%rbp), %rax
	movq	%rax, %rcx
	call	_ZNSaIcEC1Ev
	movq	48(%rbp), %rax
	movq	%rax, %rcx
	call	_ZSt7forwardIRA17_KcEOT_RNSt16remove_referenceIS3_E4typeE
	leaq	-1(%rbp), %rdx
	movq	%rdx, %r8
	movq	%rax, %rdx
	movq	%rbx, %rcx
.LEHB86:
	call	_ZNSt7__cxx1112basic_stringIcSt11char_traitsIcESaIcEEC1IS3_EEPKcRKS3_
.LEHE86:
	leaq	-1(%rbp), %rax
	movq	%rax, %rcx
	call	_ZNSaIcED1Ev
	jmp	.L356
.L355:
	movq	%rax, %rbx
	leaq	-1(%rbp), %rax
	movq	%rax, %rcx
	call	_ZNSaIcED1Ev
	movq	32(%rbp), %rax
	movq	%rax, %rcx
	call	_ZNSt8functionIFbvEED1Ev
	movq	%rbx, %rax
	movq	%rax, %rcx
.LEHB87:
	call	_Unwind_Resume
	nop
.LEHE87:
.L356:
	addq	$56, %rsp
	popq	%rbx
	popq	%rbp
	ret
	.seh_handler	__gxx_personality_seh0, @unwind, @except
	.seh_handlerdata
.LLSDA4135:
	.byte	0xff
	.byte	0xff
	.byte	0x1
	.uleb128 .LLSDACSE4135-.LLSDACSB4135
.LLSDACSB4135:
	.uleb128 .LEHB86-.LFB4135
	.uleb128 .LEHE86-.LEHB86
	.uleb128 .L355-.LFB4135
	.uleb128 0
	.uleb128 .LEHB87-.LFB4135
	.uleb128 .LEHE87-.LEHB87
	.uleb128 0
	.uleb128 0
.LLSDACSE4135:
	.text
	.seh_endproc
	.def	_ZNSt4pairISt8functionIFbvEENSt7__cxx1112basic_stringIcSt11char_traitsIcESaIcEEEEC1IZ4mainEUlvE42_RA17_KcLb1EEEOT_OT0_;	.scl	3;	.type	32;	.endef
	.set	_ZNSt4pairISt8functionIFbvEENSt7__cxx1112basic_stringIcSt11char_traitsIcESaIcEEEEC1IZ4mainEUlvE42_RA17_KcLb1EEEOT_OT0_,_ZNSt4pairISt8functionIFbvEENSt7__cxx1112basic_stringIcSt11char_traitsIcESaIcEEEEC2IZ4mainEUlvE42_RA17_KcLb1EEEOT_OT0_
	.align 2
	.def	_ZNSt4pairISt8functionIFbvEENSt7__cxx1112basic_stringIcSt11char_traitsIcESaIcEEEEC2IZ4mainEUlvE43_RA17_KcLb1EEEOT_OT0_;	.scl	3;	.type	32;	.endef
	.seh_proc	_ZNSt4pairISt8functionIFbvEENSt7__cxx1112basic_stringIcSt11char_traitsIcESaIcEEEEC2IZ4mainEUlvE43_RA17_KcLb1EEEOT_OT0_
_ZNSt4pairISt8functionIFbvEENSt7__cxx1112basic_stringIcSt11char_traitsIcESaIcEEEEC2IZ4mainEUlvE43_RA17_KcLb1EEEOT_OT0_:
.LFB4138:
	pushq	%rbp
	.seh_pushreg	%rbp
	pushq	%rbx
	.seh_pushreg	%rbx
	subq	$56, %rsp
	.seh_stackalloc	56
	leaq	48(%rsp), %rbp
	.seh_setframe	%rbp, 48
	.seh_endprologue
	movq	%rcx, 32(%rbp)
	movq	%rdx, 40(%rbp)
	movq	%r8, 48(%rbp)
	movq	32(%rbp), %rbx
	movq	40(%rbp), %rax
	movq	%rax, %rcx
	call	_ZSt7forwardIZ4mainEUlvE43_EOT_RNSt16remove_referenceIS1_E4typeE
	movq	%rax, %rdx
	movq	%rbx, %rcx
	call	_ZNSt8functionIFbvEEC1IZ4mainEUlvE43_vEEOT_
	movq	32(%rbp), %rax
	leaq	32(%rax), %rbx
	leaq	-1(%rbp), %rax
	movq	%rax, %rcx
	call	_ZNSaIcEC1Ev
	movq	48(%rbp), %rax
	movq	%rax, %rcx
	call	_ZSt7forwardIRA17_KcEOT_RNSt16remove_referenceIS3_E4typeE
	leaq	-1(%rbp), %rdx
	movq	%rdx, %r8
	movq	%rax, %rdx
	movq	%rbx, %rcx
.LEHB88:
	call	_ZNSt7__cxx1112basic_stringIcSt11char_traitsIcESaIcEEC1IS3_EEPKcRKS3_
.LEHE88:
	leaq	-1(%rbp), %rax
	movq	%rax, %rcx
	call	_ZNSaIcED1Ev
	jmp	.L360
.L359:
	movq	%rax, %rbx
	leaq	-1(%rbp), %rax
	movq	%rax, %rcx
	call	_ZNSaIcED1Ev
	movq	32(%rbp), %rax
	movq	%rax, %rcx
	call	_ZNSt8functionIFbvEED1Ev
	movq	%rbx, %rax
	movq	%rax, %rcx
.LEHB89:
	call	_Unwind_Resume
	nop
.LEHE89:
.L360:
	addq	$56, %rsp
	popq	%rbx
	popq	%rbp
	ret
	.seh_handler	__gxx_personality_seh0, @unwind, @except
	.seh_handlerdata
.LLSDA4138:
	.byte	0xff
	.byte	0xff
	.byte	0x1
	.uleb128 .LLSDACSE4138-.LLSDACSB4138
.LLSDACSB4138:
	.uleb128 .LEHB88-.LFB4138
	.uleb128 .LEHE88-.LEHB88
	.uleb128 .L359-.LFB4138
	.uleb128 0
	.uleb128 .LEHB89-.LFB4138
	.uleb128 .LEHE89-.LEHB89
	.uleb128 0
	.uleb128 0
.LLSDACSE4138:
	.text
	.seh_endproc
	.def	_ZNSt4pairISt8functionIFbvEENSt7__cxx1112basic_stringIcSt11char_traitsIcESaIcEEEEC1IZ4mainEUlvE43_RA17_KcLb1EEEOT_OT0_;	.scl	3;	.type	32;	.endef
	.set	_ZNSt4pairISt8functionIFbvEENSt7__cxx1112basic_stringIcSt11char_traitsIcESaIcEEEEC1IZ4mainEUlvE43_RA17_KcLb1EEEOT_OT0_,_ZNSt4pairISt8functionIFbvEENSt7__cxx1112basic_stringIcSt11char_traitsIcESaIcEEEEC2IZ4mainEUlvE43_RA17_KcLb1EEEOT_OT0_
	.align 2
	.def	_ZNSt4pairISt8functionIFbvEENSt7__cxx1112basic_stringIcSt11char_traitsIcESaIcEEEEC2IZ4mainEUlvE44_RA19_KcLb1EEEOT_OT0_;	.scl	3;	.type	32;	.endef
	.seh_proc	_ZNSt4pairISt8functionIFbvEENSt7__cxx1112basic_stringIcSt11char_traitsIcESaIcEEEEC2IZ4mainEUlvE44_RA19_KcLb1EEEOT_OT0_
_ZNSt4pairISt8functionIFbvEENSt7__cxx1112basic_stringIcSt11char_traitsIcESaIcEEEEC2IZ4mainEUlvE44_RA19_KcLb1EEEOT_OT0_:
.LFB4141:
	pushq	%rbp
	.seh_pushreg	%rbp
	pushq	%rbx
	.seh_pushreg	%rbx
	subq	$56, %rsp
	.seh_stackalloc	56
	leaq	48(%rsp), %rbp
	.seh_setframe	%rbp, 48
	.seh_endprologue
	movq	%rcx, 32(%rbp)
	movq	%rdx, 40(%rbp)
	movq	%r8, 48(%rbp)
	movq	32(%rbp), %rbx
	movq	40(%rbp), %rax
	movq	%rax, %rcx
	call	_ZSt7forwardIZ4mainEUlvE44_EOT_RNSt16remove_referenceIS1_E4typeE
	movq	%rax, %rdx
	movq	%rbx, %rcx
	call	_ZNSt8functionIFbvEEC1IZ4mainEUlvE44_vEEOT_
	movq	32(%rbp), %rax
	leaq	32(%rax), %rbx
	leaq	-1(%rbp), %rax
	movq	%rax, %rcx
	call	_ZNSaIcEC1Ev
	movq	48(%rbp), %rax
	movq	%rax, %rcx
	call	_ZSt7forwardIRA19_KcEOT_RNSt16remove_referenceIS3_E4typeE
	leaq	-1(%rbp), %rdx
	movq	%rdx, %r8
	movq	%rax, %rdx
	movq	%rbx, %rcx
.LEHB90:
	call	_ZNSt7__cxx1112basic_stringIcSt11char_traitsIcESaIcEEC1IS3_EEPKcRKS3_
.LEHE90:
	leaq	-1(%rbp), %rax
	movq	%rax, %rcx
	call	_ZNSaIcED1Ev
	jmp	.L364
.L363:
	movq	%rax, %rbx
	leaq	-1(%rbp), %rax
	movq	%rax, %rcx
	call	_ZNSaIcED1Ev
	movq	32(%rbp), %rax
	movq	%rax, %rcx
	call	_ZNSt8functionIFbvEED1Ev
	movq	%rbx, %rax
	movq	%rax, %rcx
.LEHB91:
	call	_Unwind_Resume
	nop
.LEHE91:
.L364:
	addq	$56, %rsp
	popq	%rbx
	popq	%rbp
	ret
	.seh_handler	__gxx_personality_seh0, @unwind, @except
	.seh_handlerdata
.LLSDA4141:
	.byte	0xff
	.byte	0xff
	.byte	0x1
	.uleb128 .LLSDACSE4141-.LLSDACSB4141
.LLSDACSB4141:
	.uleb128 .LEHB90-.LFB4141
	.uleb128 .LEHE90-.LEHB90
	.uleb128 .L363-.LFB4141
	.uleb128 0
	.uleb128 .LEHB91-.LFB4141
	.uleb128 .LEHE91-.LEHB91
	.uleb128 0
	.uleb128 0
.LLSDACSE4141:
	.text
	.seh_endproc
	.def	_ZNSt4pairISt8functionIFbvEENSt7__cxx1112basic_stringIcSt11char_traitsIcESaIcEEEEC1IZ4mainEUlvE44_RA19_KcLb1EEEOT_OT0_;	.scl	3;	.type	32;	.endef
	.set	_ZNSt4pairISt8functionIFbvEENSt7__cxx1112basic_stringIcSt11char_traitsIcESaIcEEEEC1IZ4mainEUlvE44_RA19_KcLb1EEEOT_OT0_,_ZNSt4pairISt8functionIFbvEENSt7__cxx1112basic_stringIcSt11char_traitsIcESaIcEEEEC2IZ4mainEUlvE44_RA19_KcLb1EEEOT_OT0_
	.align 2
	.def	_ZNSt4pairISt8functionIFbvEENSt7__cxx1112basic_stringIcSt11char_traitsIcESaIcEEEEC2IZ4mainEUlvE45_RA17_KcLb1EEEOT_OT0_;	.scl	3;	.type	32;	.endef
	.seh_proc	_ZNSt4pairISt8functionIFbvEENSt7__cxx1112basic_stringIcSt11char_traitsIcESaIcEEEEC2IZ4mainEUlvE45_RA17_KcLb1EEEOT_OT0_
_ZNSt4pairISt8functionIFbvEENSt7__cxx1112basic_stringIcSt11char_traitsIcESaIcEEEEC2IZ4mainEUlvE45_RA17_KcLb1EEEOT_OT0_:
.LFB4144:
	pushq	%rbp
	.seh_pushreg	%rbp
	pushq	%rbx
	.seh_pushreg	%rbx
	subq	$56, %rsp
	.seh_stackalloc	56
	leaq	48(%rsp), %rbp
	.seh_setframe	%rbp, 48
	.seh_endprologue
	movq	%rcx, 32(%rbp)
	movq	%rdx, 40(%rbp)
	movq	%r8, 48(%rbp)
	movq	32(%rbp), %rbx
	movq	40(%rbp), %rax
	movq	%rax, %rcx
	call	_ZSt7forwardIZ4mainEUlvE45_EOT_RNSt16remove_referenceIS1_E4typeE
	movq	%rax, %rdx
	movq	%rbx, %rcx
	call	_ZNSt8functionIFbvEEC1IZ4mainEUlvE45_vEEOT_
	movq	32(%rbp), %rax
	leaq	32(%rax), %rbx
	leaq	-1(%rbp), %rax
	movq	%rax, %rcx
	call	_ZNSaIcEC1Ev
	movq	48(%rbp), %rax
	movq	%rax, %rcx
	call	_ZSt7forwardIRA17_KcEOT_RNSt16remove_referenceIS3_E4typeE
	leaq	-1(%rbp), %rdx
	movq	%rdx, %r8
	movq	%rax, %rdx
	movq	%rbx, %rcx
.LEHB92:
	call	_ZNSt7__cxx1112basic_stringIcSt11char_traitsIcESaIcEEC1IS3_EEPKcRKS3_
.LEHE92:
	leaq	-1(%rbp), %rax
	movq	%rax, %rcx
	call	_ZNSaIcED1Ev
	jmp	.L368
.L367:
	movq	%rax, %rbx
	leaq	-1(%rbp), %rax
	movq	%rax, %rcx
	call	_ZNSaIcED1Ev
	movq	32(%rbp), %rax
	movq	%rax, %rcx
	call	_ZNSt8functionIFbvEED1Ev
	movq	%rbx, %rax
	movq	%rax, %rcx
.LEHB93:
	call	_Unwind_Resume
	nop
.LEHE93:
.L368:
	addq	$56, %rsp
	popq	%rbx
	popq	%rbp
	ret
	.seh_handler	__gxx_personality_seh0, @unwind, @except
	.seh_handlerdata
.LLSDA4144:
	.byte	0xff
	.byte	0xff
	.byte	0x1
	.uleb128 .LLSDACSE4144-.LLSDACSB4144
.LLSDACSB4144:
	.uleb128 .LEHB92-.LFB4144
	.uleb128 .LEHE92-.LEHB92
	.uleb128 .L367-.LFB4144
	.uleb128 0
	.uleb128 .LEHB93-.LFB4144
	.uleb128 .LEHE93-.LEHB93
	.uleb128 0
	.uleb128 0
.LLSDACSE4144:
	.text
	.seh_endproc
	.def	_ZNSt4pairISt8functionIFbvEENSt7__cxx1112basic_stringIcSt11char_traitsIcESaIcEEEEC1IZ4mainEUlvE45_RA17_KcLb1EEEOT_OT0_;	.scl	3;	.type	32;	.endef
	.set	_ZNSt4pairISt8functionIFbvEENSt7__cxx1112basic_stringIcSt11char_traitsIcESaIcEEEEC1IZ4mainEUlvE45_RA17_KcLb1EEEOT_OT0_,_ZNSt4pairISt8functionIFbvEENSt7__cxx1112basic_stringIcSt11char_traitsIcESaIcEEEEC2IZ4mainEUlvE45_RA17_KcLb1EEEOT_OT0_
	.align 2
	.def	_ZNSt4pairISt8functionIFbvEENSt7__cxx1112basic_stringIcSt11char_traitsIcESaIcEEEEC2IZ4mainEUlvE46_RA18_KcLb1EEEOT_OT0_;	.scl	3;	.type	32;	.endef
	.seh_proc	_ZNSt4pairISt8functionIFbvEENSt7__cxx1112basic_stringIcSt11char_traitsIcESaIcEEEEC2IZ4mainEUlvE46_RA18_KcLb1EEEOT_OT0_
_ZNSt4pairISt8functionIFbvEENSt7__cxx1112basic_stringIcSt11char_traitsIcESaIcEEEEC2IZ4mainEUlvE46_RA18_KcLb1EEEOT_OT0_:
.LFB4147:
	pushq	%rbp
	.seh_pushreg	%rbp
	pushq	%rbx
	.seh_pushreg	%rbx
	subq	$56, %rsp
	.seh_stackalloc	56
	leaq	48(%rsp), %rbp
	.seh_setframe	%rbp, 48
	.seh_endprologue
	movq	%rcx, 32(%rbp)
	movq	%rdx, 40(%rbp)
	movq	%r8, 48(%rbp)
	movq	32(%rbp), %rbx
	movq	40(%rbp), %rax
	movq	%rax, %rcx
	call	_ZSt7forwardIZ4mainEUlvE46_EOT_RNSt16remove_referenceIS1_E4typeE
	movq	%rax, %rdx
	movq	%rbx, %rcx
	call	_ZNSt8functionIFbvEEC1IZ4mainEUlvE46_vEEOT_
	movq	32(%rbp), %rax
	leaq	32(%rax), %rbx
	leaq	-1(%rbp), %rax
	movq	%rax, %rcx
	call	_ZNSaIcEC1Ev
	movq	48(%rbp), %rax
	movq	%rax, %rcx
	call	_ZSt7forwardIRA18_KcEOT_RNSt16remove_referenceIS3_E4typeE
	leaq	-1(%rbp), %rdx
	movq	%rdx, %r8
	movq	%rax, %rdx
	movq	%rbx, %rcx
.LEHB94:
	call	_ZNSt7__cxx1112basic_stringIcSt11char_traitsIcESaIcEEC1IS3_EEPKcRKS3_
.LEHE94:
	leaq	-1(%rbp), %rax
	movq	%rax, %rcx
	call	_ZNSaIcED1Ev
	jmp	.L372
.L371:
	movq	%rax, %rbx
	leaq	-1(%rbp), %rax
	movq	%rax, %rcx
	call	_ZNSaIcED1Ev
	movq	32(%rbp), %rax
	movq	%rax, %rcx
	call	_ZNSt8functionIFbvEED1Ev
	movq	%rbx, %rax
	movq	%rax, %rcx
.LEHB95:
	call	_Unwind_Resume
	nop
.LEHE95:
.L372:
	addq	$56, %rsp
	popq	%rbx
	popq	%rbp
	ret
	.seh_handler	__gxx_personality_seh0, @unwind, @except
	.seh_handlerdata
.LLSDA4147:
	.byte	0xff
	.byte	0xff
	.byte	0x1
	.uleb128 .LLSDACSE4147-.LLSDACSB4147
.LLSDACSB4147:
	.uleb128 .LEHB94-.LFB4147
	.uleb128 .LEHE94-.LEHB94
	.uleb128 .L371-.LFB4147
	.uleb128 0
	.uleb128 .LEHB95-.LFB4147
	.uleb128 .LEHE95-.LEHB95
	.uleb128 0
	.uleb128 0
.LLSDACSE4147:
	.text
	.seh_endproc
	.def	_ZNSt4pairISt8functionIFbvEENSt7__cxx1112basic_stringIcSt11char_traitsIcESaIcEEEEC1IZ4mainEUlvE46_RA18_KcLb1EEEOT_OT0_;	.scl	3;	.type	32;	.endef
	.set	_ZNSt4pairISt8functionIFbvEENSt7__cxx1112basic_stringIcSt11char_traitsIcESaIcEEEEC1IZ4mainEUlvE46_RA18_KcLb1EEEOT_OT0_,_ZNSt4pairISt8functionIFbvEENSt7__cxx1112basic_stringIcSt11char_traitsIcESaIcEEEEC2IZ4mainEUlvE46_RA18_KcLb1EEEOT_OT0_
	.align 2
	.def	_ZNSt4pairISt8functionIFbvEENSt7__cxx1112basic_stringIcSt11char_traitsIcESaIcEEEEC2IZ4mainEUlvE47_RA18_KcLb1EEEOT_OT0_;	.scl	3;	.type	32;	.endef
	.seh_proc	_ZNSt4pairISt8functionIFbvEENSt7__cxx1112basic_stringIcSt11char_traitsIcESaIcEEEEC2IZ4mainEUlvE47_RA18_KcLb1EEEOT_OT0_
_ZNSt4pairISt8functionIFbvEENSt7__cxx1112basic_stringIcSt11char_traitsIcESaIcEEEEC2IZ4mainEUlvE47_RA18_KcLb1EEEOT_OT0_:
.LFB4150:
	pushq	%rbp
	.seh_pushreg	%rbp
	pushq	%rbx
	.seh_pushreg	%rbx
	subq	$56, %rsp
	.seh_stackalloc	56
	leaq	48(%rsp), %rbp
	.seh_setframe	%rbp, 48
	.seh_endprologue
	movq	%rcx, 32(%rbp)
	movq	%rdx, 40(%rbp)
	movq	%r8, 48(%rbp)
	movq	32(%rbp), %rbx
	movq	40(%rbp), %rax
	movq	%rax, %rcx
	call	_ZSt7forwardIZ4mainEUlvE47_EOT_RNSt16remove_referenceIS1_E4typeE
	movq	%rax, %rdx
	movq	%rbx, %rcx
	call	_ZNSt8functionIFbvEEC1IZ4mainEUlvE47_vEEOT_
	movq	32(%rbp), %rax
	leaq	32(%rax), %rbx
	leaq	-1(%rbp), %rax
	movq	%rax, %rcx
	call	_ZNSaIcEC1Ev
	movq	48(%rbp), %rax
	movq	%rax, %rcx
	call	_ZSt7forwardIRA18_KcEOT_RNSt16remove_referenceIS3_E4typeE
	leaq	-1(%rbp), %rdx
	movq	%rdx, %r8
	movq	%rax, %rdx
	movq	%rbx, %rcx
.LEHB96:
	call	_ZNSt7__cxx1112basic_stringIcSt11char_traitsIcESaIcEEC1IS3_EEPKcRKS3_
.LEHE96:
	leaq	-1(%rbp), %rax
	movq	%rax, %rcx
	call	_ZNSaIcED1Ev
	jmp	.L376
.L375:
	movq	%rax, %rbx
	leaq	-1(%rbp), %rax
	movq	%rax, %rcx
	call	_ZNSaIcED1Ev
	movq	32(%rbp), %rax
	movq	%rax, %rcx
	call	_ZNSt8functionIFbvEED1Ev
	movq	%rbx, %rax
	movq	%rax, %rcx
.LEHB97:
	call	_Unwind_Resume
	nop
.LEHE97:
.L376:
	addq	$56, %rsp
	popq	%rbx
	popq	%rbp
	ret
	.seh_handler	__gxx_personality_seh0, @unwind, @except
	.seh_handlerdata
.LLSDA4150:
	.byte	0xff
	.byte	0xff
	.byte	0x1
	.uleb128 .LLSDACSE4150-.LLSDACSB4150
.LLSDACSB4150:
	.uleb128 .LEHB96-.LFB4150
	.uleb128 .LEHE96-.LEHB96
	.uleb128 .L375-.LFB4150
	.uleb128 0
	.uleb128 .LEHB97-.LFB4150
	.uleb128 .LEHE97-.LEHB97
	.uleb128 0
	.uleb128 0
.LLSDACSE4150:
	.text
	.seh_endproc
	.def	_ZNSt4pairISt8functionIFbvEENSt7__cxx1112basic_stringIcSt11char_traitsIcESaIcEEEEC1IZ4mainEUlvE47_RA18_KcLb1EEEOT_OT0_;	.scl	3;	.type	32;	.endef
	.set	_ZNSt4pairISt8functionIFbvEENSt7__cxx1112basic_stringIcSt11char_traitsIcESaIcEEEEC1IZ4mainEUlvE47_RA18_KcLb1EEEOT_OT0_,_ZNSt4pairISt8functionIFbvEENSt7__cxx1112basic_stringIcSt11char_traitsIcESaIcEEEEC2IZ4mainEUlvE47_RA18_KcLb1EEEOT_OT0_
	.align 2
	.def	_ZNSt4pairISt8functionIFbvEENSt7__cxx1112basic_stringIcSt11char_traitsIcESaIcEEEEC2IZ4mainEUlvE48_RA19_KcLb1EEEOT_OT0_;	.scl	3;	.type	32;	.endef
	.seh_proc	_ZNSt4pairISt8functionIFbvEENSt7__cxx1112basic_stringIcSt11char_traitsIcESaIcEEEEC2IZ4mainEUlvE48_RA19_KcLb1EEEOT_OT0_
_ZNSt4pairISt8functionIFbvEENSt7__cxx1112basic_stringIcSt11char_traitsIcESaIcEEEEC2IZ4mainEUlvE48_RA19_KcLb1EEEOT_OT0_:
.LFB4153:
	pushq	%rbp
	.seh_pushreg	%rbp
	pushq	%rbx
	.seh_pushreg	%rbx
	subq	$56, %rsp
	.seh_stackalloc	56
	leaq	48(%rsp), %rbp
	.seh_setframe	%rbp, 48
	.seh_endprologue
	movq	%rcx, 32(%rbp)
	movq	%rdx, 40(%rbp)
	movq	%r8, 48(%rbp)
	movq	32(%rbp), %rbx
	movq	40(%rbp), %rax
	movq	%rax, %rcx
	call	_ZSt7forwardIZ4mainEUlvE48_EOT_RNSt16remove_referenceIS1_E4typeE
	movq	%rax, %rdx
	movq	%rbx, %rcx
	call	_ZNSt8functionIFbvEEC1IZ4mainEUlvE48_vEEOT_
	movq	32(%rbp), %rax
	leaq	32(%rax), %rbx
	leaq	-1(%rbp), %rax
	movq	%rax, %rcx
	call	_ZNSaIcEC1Ev
	movq	48(%rbp), %rax
	movq	%rax, %rcx
	call	_ZSt7forwardIRA19_KcEOT_RNSt16remove_referenceIS3_E4typeE
	leaq	-1(%rbp), %rdx
	movq	%rdx, %r8
	movq	%rax, %rdx
	movq	%rbx, %rcx
.LEHB98:
	call	_ZNSt7__cxx1112basic_stringIcSt11char_traitsIcESaIcEEC1IS3_EEPKcRKS3_
.LEHE98:
	leaq	-1(%rbp), %rax
	movq	%rax, %rcx
	call	_ZNSaIcED1Ev
	jmp	.L380
.L379:
	movq	%rax, %rbx
	leaq	-1(%rbp), %rax
	movq	%rax, %rcx
	call	_ZNSaIcED1Ev
	movq	32(%rbp), %rax
	movq	%rax, %rcx
	call	_ZNSt8functionIFbvEED1Ev
	movq	%rbx, %rax
	movq	%rax, %rcx
.LEHB99:
	call	_Unwind_Resume
	nop
.LEHE99:
.L380:
	addq	$56, %rsp
	popq	%rbx
	popq	%rbp
	ret
	.seh_handler	__gxx_personality_seh0, @unwind, @except
	.seh_handlerdata
.LLSDA4153:
	.byte	0xff
	.byte	0xff
	.byte	0x1
	.uleb128 .LLSDACSE4153-.LLSDACSB4153
.LLSDACSB4153:
	.uleb128 .LEHB98-.LFB4153
	.uleb128 .LEHE98-.LEHB98
	.uleb128 .L379-.LFB4153
	.uleb128 0
	.uleb128 .LEHB99-.LFB4153
	.uleb128 .LEHE99-.LEHB99
	.uleb128 0
	.uleb128 0
.LLSDACSE4153:
	.text
	.seh_endproc
	.def	_ZNSt4pairISt8functionIFbvEENSt7__cxx1112basic_stringIcSt11char_traitsIcESaIcEEEEC1IZ4mainEUlvE48_RA19_KcLb1EEEOT_OT0_;	.scl	3;	.type	32;	.endef
	.set	_ZNSt4pairISt8functionIFbvEENSt7__cxx1112basic_stringIcSt11char_traitsIcESaIcEEEEC1IZ4mainEUlvE48_RA19_KcLb1EEEOT_OT0_,_ZNSt4pairISt8functionIFbvEENSt7__cxx1112basic_stringIcSt11char_traitsIcESaIcEEEEC2IZ4mainEUlvE48_RA19_KcLb1EEEOT_OT0_
	.align 2
	.def	_ZNSt4pairISt8functionIFbvEENSt7__cxx1112basic_stringIcSt11char_traitsIcESaIcEEEEC2IZ4mainEUlvE49_RA20_KcLb1EEEOT_OT0_;	.scl	3;	.type	32;	.endef
	.seh_proc	_ZNSt4pairISt8functionIFbvEENSt7__cxx1112basic_stringIcSt11char_traitsIcESaIcEEEEC2IZ4mainEUlvE49_RA20_KcLb1EEEOT_OT0_
_ZNSt4pairISt8functionIFbvEENSt7__cxx1112basic_stringIcSt11char_traitsIcESaIcEEEEC2IZ4mainEUlvE49_RA20_KcLb1EEEOT_OT0_:
.LFB4156:
	pushq	%rbp
	.seh_pushreg	%rbp
	pushq	%rbx
	.seh_pushreg	%rbx
	subq	$56, %rsp
	.seh_stackalloc	56
	leaq	48(%rsp), %rbp
	.seh_setframe	%rbp, 48
	.seh_endprologue
	movq	%rcx, 32(%rbp)
	movq	%rdx, 40(%rbp)
	movq	%r8, 48(%rbp)
	movq	32(%rbp), %rbx
	movq	40(%rbp), %rax
	movq	%rax, %rcx
	call	_ZSt7forwardIZ4mainEUlvE49_EOT_RNSt16remove_referenceIS1_E4typeE
	movq	%rax, %rdx
	movq	%rbx, %rcx
	call	_ZNSt8functionIFbvEEC1IZ4mainEUlvE49_vEEOT_
	movq	32(%rbp), %rax
	leaq	32(%rax), %rbx
	leaq	-1(%rbp), %rax
	movq	%rax, %rcx
	call	_ZNSaIcEC1Ev
	movq	48(%rbp), %rax
	movq	%rax, %rcx
	call	_ZSt7forwardIRA20_KcEOT_RNSt16remove_referenceIS3_E4typeE
	leaq	-1(%rbp), %rdx
	movq	%rdx, %r8
	movq	%rax, %rdx
	movq	%rbx, %rcx
.LEHB100:
	call	_ZNSt7__cxx1112basic_stringIcSt11char_traitsIcESaIcEEC1IS3_EEPKcRKS3_
.LEHE100:
	leaq	-1(%rbp), %rax
	movq	%rax, %rcx
	call	_ZNSaIcED1Ev
	jmp	.L384
.L383:
	movq	%rax, %rbx
	leaq	-1(%rbp), %rax
	movq	%rax, %rcx
	call	_ZNSaIcED1Ev
	movq	32(%rbp), %rax
	movq	%rax, %rcx
	call	_ZNSt8functionIFbvEED1Ev
	movq	%rbx, %rax
	movq	%rax, %rcx
.LEHB101:
	call	_Unwind_Resume
	nop
.LEHE101:
.L384:
	addq	$56, %rsp
	popq	%rbx
	popq	%rbp
	ret
	.seh_handler	__gxx_personality_seh0, @unwind, @except
	.seh_handlerdata
.LLSDA4156:
	.byte	0xff
	.byte	0xff
	.byte	0x1
	.uleb128 .LLSDACSE4156-.LLSDACSB4156
.LLSDACSB4156:
	.uleb128 .LEHB100-.LFB4156
	.uleb128 .LEHE100-.LEHB100
	.uleb128 .L383-.LFB4156
	.uleb128 0
	.uleb128 .LEHB101-.LFB4156
	.uleb128 .LEHE101-.LEHB101
	.uleb128 0
	.uleb128 0
.LLSDACSE4156:
	.text
	.seh_endproc
	.def	_ZNSt4pairISt8functionIFbvEENSt7__cxx1112basic_stringIcSt11char_traitsIcESaIcEEEEC1IZ4mainEUlvE49_RA20_KcLb1EEEOT_OT0_;	.scl	3;	.type	32;	.endef
	.set	_ZNSt4pairISt8functionIFbvEENSt7__cxx1112basic_stringIcSt11char_traitsIcESaIcEEEEC1IZ4mainEUlvE49_RA20_KcLb1EEEOT_OT0_,_ZNSt4pairISt8functionIFbvEENSt7__cxx1112basic_stringIcSt11char_traitsIcESaIcEEEEC2IZ4mainEUlvE49_RA20_KcLb1EEEOT_OT0_
	.align 2
	.def	_ZNSt4pairISt8functionIFbvEENSt7__cxx1112basic_stringIcSt11char_traitsIcESaIcEEEEC2IZ4mainEUlvE50_RA20_KcLb1EEEOT_OT0_;	.scl	3;	.type	32;	.endef
	.seh_proc	_ZNSt4pairISt8functionIFbvEENSt7__cxx1112basic_stringIcSt11char_traitsIcESaIcEEEEC2IZ4mainEUlvE50_RA20_KcLb1EEEOT_OT0_
_ZNSt4pairISt8functionIFbvEENSt7__cxx1112basic_stringIcSt11char_traitsIcESaIcEEEEC2IZ4mainEUlvE50_RA20_KcLb1EEEOT_OT0_:
.LFB4159:
	pushq	%rbp
	.seh_pushreg	%rbp
	pushq	%rbx
	.seh_pushreg	%rbx
	subq	$56, %rsp
	.seh_stackalloc	56
	leaq	48(%rsp), %rbp
	.seh_setframe	%rbp, 48
	.seh_endprologue
	movq	%rcx, 32(%rbp)
	movq	%rdx, 40(%rbp)
	movq	%r8, 48(%rbp)
	movq	32(%rbp), %rbx
	movq	40(%rbp), %rax
	movq	%rax, %rcx
	call	_ZSt7forwardIZ4mainEUlvE50_EOT_RNSt16remove_referenceIS1_E4typeE
	movq	%rax, %rdx
	movq	%rbx, %rcx
	call	_ZNSt8functionIFbvEEC1IZ4mainEUlvE50_vEEOT_
	movq	32(%rbp), %rax
	leaq	32(%rax), %rbx
	leaq	-1(%rbp), %rax
	movq	%rax, %rcx
	call	_ZNSaIcEC1Ev
	movq	48(%rbp), %rax
	movq	%rax, %rcx
	call	_ZSt7forwardIRA20_KcEOT_RNSt16remove_referenceIS3_E4typeE
	leaq	-1(%rbp), %rdx
	movq	%rdx, %r8
	movq	%rax, %rdx
	movq	%rbx, %rcx
.LEHB102:
	call	_ZNSt7__cxx1112basic_stringIcSt11char_traitsIcESaIcEEC1IS3_EEPKcRKS3_
.LEHE102:
	leaq	-1(%rbp), %rax
	movq	%rax, %rcx
	call	_ZNSaIcED1Ev
	jmp	.L388
.L387:
	movq	%rax, %rbx
	leaq	-1(%rbp), %rax
	movq	%rax, %rcx
	call	_ZNSaIcED1Ev
	movq	32(%rbp), %rax
	movq	%rax, %rcx
	call	_ZNSt8functionIFbvEED1Ev
	movq	%rbx, %rax
	movq	%rax, %rcx
.LEHB103:
	call	_Unwind_Resume
	nop
.LEHE103:
.L388:
	addq	$56, %rsp
	popq	%rbx
	popq	%rbp
	ret
	.seh_handler	__gxx_personality_seh0, @unwind, @except
	.seh_handlerdata
.LLSDA4159:
	.byte	0xff
	.byte	0xff
	.byte	0x1
	.uleb128 .LLSDACSE4159-.LLSDACSB4159
.LLSDACSB4159:
	.uleb128 .LEHB102-.LFB4159
	.uleb128 .LEHE102-.LEHB102
	.uleb128 .L387-.LFB4159
	.uleb128 0
	.uleb128 .LEHB103-.LFB4159
	.uleb128 .LEHE103-.LEHB103
	.uleb128 0
	.uleb128 0
.LLSDACSE4159:
	.text
	.seh_endproc
	.def	_ZNSt4pairISt8functionIFbvEENSt7__cxx1112basic_stringIcSt11char_traitsIcESaIcEEEEC1IZ4mainEUlvE50_RA20_KcLb1EEEOT_OT0_;	.scl	3;	.type	32;	.endef
	.set	_ZNSt4pairISt8functionIFbvEENSt7__cxx1112basic_stringIcSt11char_traitsIcESaIcEEEEC1IZ4mainEUlvE50_RA20_KcLb1EEEOT_OT0_,_ZNSt4pairISt8functionIFbvEENSt7__cxx1112basic_stringIcSt11char_traitsIcESaIcEEEEC2IZ4mainEUlvE50_RA20_KcLb1EEEOT_OT0_
	.align 2
	.def	_ZNSt4pairISt8functionIFbvEENSt7__cxx1112basic_stringIcSt11char_traitsIcESaIcEEEEC2IZ4mainEUlvE51_RA17_KcLb1EEEOT_OT0_;	.scl	3;	.type	32;	.endef
	.seh_proc	_ZNSt4pairISt8functionIFbvEENSt7__cxx1112basic_stringIcSt11char_traitsIcESaIcEEEEC2IZ4mainEUlvE51_RA17_KcLb1EEEOT_OT0_
_ZNSt4pairISt8functionIFbvEENSt7__cxx1112basic_stringIcSt11char_traitsIcESaIcEEEEC2IZ4mainEUlvE51_RA17_KcLb1EEEOT_OT0_:
.LFB4162:
	pushq	%rbp
	.seh_pushreg	%rbp
	pushq	%rbx
	.seh_pushreg	%rbx
	subq	$56, %rsp
	.seh_stackalloc	56
	leaq	48(%rsp), %rbp
	.seh_setframe	%rbp, 48
	.seh_endprologue
	movq	%rcx, 32(%rbp)
	movq	%rdx, 40(%rbp)
	movq	%r8, 48(%rbp)
	movq	32(%rbp), %rbx
	movq	40(%rbp), %rax
	movq	%rax, %rcx
	call	_ZSt7forwardIZ4mainEUlvE51_EOT_RNSt16remove_referenceIS1_E4typeE
	movq	%rax, %rdx
	movq	%rbx, %rcx
	call	_ZNSt8functionIFbvEEC1IZ4mainEUlvE51_vEEOT_
	movq	32(%rbp), %rax
	leaq	32(%rax), %rbx
	leaq	-1(%rbp), %rax
	movq	%rax, %rcx
	call	_ZNSaIcEC1Ev
	movq	48(%rbp), %rax
	movq	%rax, %rcx
	call	_ZSt7forwardIRA17_KcEOT_RNSt16remove_referenceIS3_E4typeE
	leaq	-1(%rbp), %rdx
	movq	%rdx, %r8
	movq	%rax, %rdx
	movq	%rbx, %rcx
.LEHB104:
	call	_ZNSt7__cxx1112basic_stringIcSt11char_traitsIcESaIcEEC1IS3_EEPKcRKS3_
.LEHE104:
	leaq	-1(%rbp), %rax
	movq	%rax, %rcx
	call	_ZNSaIcED1Ev
	jmp	.L392
.L391:
	movq	%rax, %rbx
	leaq	-1(%rbp), %rax
	movq	%rax, %rcx
	call	_ZNSaIcED1Ev
	movq	32(%rbp), %rax
	movq	%rax, %rcx
	call	_ZNSt8functionIFbvEED1Ev
	movq	%rbx, %rax
	movq	%rax, %rcx
.LEHB105:
	call	_Unwind_Resume
	nop
.LEHE105:
.L392:
	addq	$56, %rsp
	popq	%rbx
	popq	%rbp
	ret
	.seh_handler	__gxx_personality_seh0, @unwind, @except
	.seh_handlerdata
.LLSDA4162:
	.byte	0xff
	.byte	0xff
	.byte	0x1
	.uleb128 .LLSDACSE4162-.LLSDACSB4162
.LLSDACSB4162:
	.uleb128 .LEHB104-.LFB4162
	.uleb128 .LEHE104-.LEHB104
	.uleb128 .L391-.LFB4162
	.uleb128 0
	.uleb128 .LEHB105-.LFB4162
	.uleb128 .LEHE105-.LEHB105
	.uleb128 0
	.uleb128 0
.LLSDACSE4162:
	.text
	.seh_endproc
	.def	_ZNSt4pairISt8functionIFbvEENSt7__cxx1112basic_stringIcSt11char_traitsIcESaIcEEEEC1IZ4mainEUlvE51_RA17_KcLb1EEEOT_OT0_;	.scl	3;	.type	32;	.endef
	.set	_ZNSt4pairISt8functionIFbvEENSt7__cxx1112basic_stringIcSt11char_traitsIcESaIcEEEEC1IZ4mainEUlvE51_RA17_KcLb1EEEOT_OT0_,_ZNSt4pairISt8functionIFbvEENSt7__cxx1112basic_stringIcSt11char_traitsIcESaIcEEEEC2IZ4mainEUlvE51_RA17_KcLb1EEEOT_OT0_
	.align 2
	.def	_ZNSt4pairISt8functionIFbvEENSt7__cxx1112basic_stringIcSt11char_traitsIcESaIcEEEEC2IZ4mainEUlvE52_RA18_KcLb1EEEOT_OT0_;	.scl	3;	.type	32;	.endef
	.seh_proc	_ZNSt4pairISt8functionIFbvEENSt7__cxx1112basic_stringIcSt11char_traitsIcESaIcEEEEC2IZ4mainEUlvE52_RA18_KcLb1EEEOT_OT0_
_ZNSt4pairISt8functionIFbvEENSt7__cxx1112basic_stringIcSt11char_traitsIcESaIcEEEEC2IZ4mainEUlvE52_RA18_KcLb1EEEOT_OT0_:
.LFB4165:
	pushq	%rbp
	.seh_pushreg	%rbp
	pushq	%rbx
	.seh_pushreg	%rbx
	subq	$56, %rsp
	.seh_stackalloc	56
	leaq	48(%rsp), %rbp
	.seh_setframe	%rbp, 48
	.seh_endprologue
	movq	%rcx, 32(%rbp)
	movq	%rdx, 40(%rbp)
	movq	%r8, 48(%rbp)
	movq	32(%rbp), %rbx
	movq	40(%rbp), %rax
	movq	%rax, %rcx
	call	_ZSt7forwardIZ4mainEUlvE52_EOT_RNSt16remove_referenceIS1_E4typeE
	movq	%rax, %rdx
	movq	%rbx, %rcx
	call	_ZNSt8functionIFbvEEC1IZ4mainEUlvE52_vEEOT_
	movq	32(%rbp), %rax
	leaq	32(%rax), %rbx
	leaq	-1(%rbp), %rax
	movq	%rax, %rcx
	call	_ZNSaIcEC1Ev
	movq	48(%rbp), %rax
	movq	%rax, %rcx
	call	_ZSt7forwardIRA18_KcEOT_RNSt16remove_referenceIS3_E4typeE
	leaq	-1(%rbp), %rdx
	movq	%rdx, %r8
	movq	%rax, %rdx
	movq	%rbx, %rcx
.LEHB106:
	call	_ZNSt7__cxx1112basic_stringIcSt11char_traitsIcESaIcEEC1IS3_EEPKcRKS3_
.LEHE106:
	leaq	-1(%rbp), %rax
	movq	%rax, %rcx
	call	_ZNSaIcED1Ev
	jmp	.L396
.L395:
	movq	%rax, %rbx
	leaq	-1(%rbp), %rax
	movq	%rax, %rcx
	call	_ZNSaIcED1Ev
	movq	32(%rbp), %rax
	movq	%rax, %rcx
	call	_ZNSt8functionIFbvEED1Ev
	movq	%rbx, %rax
	movq	%rax, %rcx
.LEHB107:
	call	_Unwind_Resume
	nop
.LEHE107:
.L396:
	addq	$56, %rsp
	popq	%rbx
	popq	%rbp
	ret
	.seh_handler	__gxx_personality_seh0, @unwind, @except
	.seh_handlerdata
.LLSDA4165:
	.byte	0xff
	.byte	0xff
	.byte	0x1
	.uleb128 .LLSDACSE4165-.LLSDACSB4165
.LLSDACSB4165:
	.uleb128 .LEHB106-.LFB4165
	.uleb128 .LEHE106-.LEHB106
	.uleb128 .L395-.LFB4165
	.uleb128 0
	.uleb128 .LEHB107-.LFB4165
	.uleb128 .LEHE107-.LEHB107
	.uleb128 0
	.uleb128 0
.LLSDACSE4165:
	.text
	.seh_endproc
	.def	_ZNSt4pairISt8functionIFbvEENSt7__cxx1112basic_stringIcSt11char_traitsIcESaIcEEEEC1IZ4mainEUlvE52_RA18_KcLb1EEEOT_OT0_;	.scl	3;	.type	32;	.endef
	.set	_ZNSt4pairISt8functionIFbvEENSt7__cxx1112basic_stringIcSt11char_traitsIcESaIcEEEEC1IZ4mainEUlvE52_RA18_KcLb1EEEOT_OT0_,_ZNSt4pairISt8functionIFbvEENSt7__cxx1112basic_stringIcSt11char_traitsIcESaIcEEEEC2IZ4mainEUlvE52_RA18_KcLb1EEEOT_OT0_
	.align 2
	.def	_ZNSt4pairISt8functionIFbvEENSt7__cxx1112basic_stringIcSt11char_traitsIcESaIcEEEEC2IZ4mainEUlvE53_RA19_KcLb1EEEOT_OT0_;	.scl	3;	.type	32;	.endef
	.seh_proc	_ZNSt4pairISt8functionIFbvEENSt7__cxx1112basic_stringIcSt11char_traitsIcESaIcEEEEC2IZ4mainEUlvE53_RA19_KcLb1EEEOT_OT0_
_ZNSt4pairISt8functionIFbvEENSt7__cxx1112basic_stringIcSt11char_traitsIcESaIcEEEEC2IZ4mainEUlvE53_RA19_KcLb1EEEOT_OT0_:
.LFB4168:
	pushq	%rbp
	.seh_pushreg	%rbp
	pushq	%rbx
	.seh_pushreg	%rbx
	subq	$56, %rsp
	.seh_stackalloc	56
	leaq	48(%rsp), %rbp
	.seh_setframe	%rbp, 48
	.seh_endprologue
	movq	%rcx, 32(%rbp)
	movq	%rdx, 40(%rbp)
	movq	%r8, 48(%rbp)
	movq	32(%rbp), %rbx
	movq	40(%rbp), %rax
	movq	%rax, %rcx
	call	_ZSt7forwardIZ4mainEUlvE53_EOT_RNSt16remove_referenceIS1_E4typeE
	movq	%rax, %rdx
	movq	%rbx, %rcx
	call	_ZNSt8functionIFbvEEC1IZ4mainEUlvE53_vEEOT_
	movq	32(%rbp), %rax
	leaq	32(%rax), %rbx
	leaq	-1(%rbp), %rax
	movq	%rax, %rcx
	call	_ZNSaIcEC1Ev
	movq	48(%rbp), %rax
	movq	%rax, %rcx
	call	_ZSt7forwardIRA19_KcEOT_RNSt16remove_referenceIS3_E4typeE
	leaq	-1(%rbp), %rdx
	movq	%rdx, %r8
	movq	%rax, %rdx
	movq	%rbx, %rcx
.LEHB108:
	call	_ZNSt7__cxx1112basic_stringIcSt11char_traitsIcESaIcEEC1IS3_EEPKcRKS3_
.LEHE108:
	leaq	-1(%rbp), %rax
	movq	%rax, %rcx
	call	_ZNSaIcED1Ev
	jmp	.L400
.L399:
	movq	%rax, %rbx
	leaq	-1(%rbp), %rax
	movq	%rax, %rcx
	call	_ZNSaIcED1Ev
	movq	32(%rbp), %rax
	movq	%rax, %rcx
	call	_ZNSt8functionIFbvEED1Ev
	movq	%rbx, %rax
	movq	%rax, %rcx
.LEHB109:
	call	_Unwind_Resume
	nop
.LEHE109:
.L400:
	addq	$56, %rsp
	popq	%rbx
	popq	%rbp
	ret
	.seh_handler	__gxx_personality_seh0, @unwind, @except
	.seh_handlerdata
.LLSDA4168:
	.byte	0xff
	.byte	0xff
	.byte	0x1
	.uleb128 .LLSDACSE4168-.LLSDACSB4168
.LLSDACSB4168:
	.uleb128 .LEHB108-.LFB4168
	.uleb128 .LEHE108-.LEHB108
	.uleb128 .L399-.LFB4168
	.uleb128 0
	.uleb128 .LEHB109-.LFB4168
	.uleb128 .LEHE109-.LEHB109
	.uleb128 0
	.uleb128 0
.LLSDACSE4168:
	.text
	.seh_endproc
	.def	_ZNSt4pairISt8functionIFbvEENSt7__cxx1112basic_stringIcSt11char_traitsIcESaIcEEEEC1IZ4mainEUlvE53_RA19_KcLb1EEEOT_OT0_;	.scl	3;	.type	32;	.endef
	.set	_ZNSt4pairISt8functionIFbvEENSt7__cxx1112basic_stringIcSt11char_traitsIcESaIcEEEEC1IZ4mainEUlvE53_RA19_KcLb1EEEOT_OT0_,_ZNSt4pairISt8functionIFbvEENSt7__cxx1112basic_stringIcSt11char_traitsIcESaIcEEEEC2IZ4mainEUlvE53_RA19_KcLb1EEEOT_OT0_
	.align 2
	.def	_ZNSt4pairISt8functionIFbvEENSt7__cxx1112basic_stringIcSt11char_traitsIcESaIcEEEEC2IZ4mainEUlvE54_RA18_KcLb1EEEOT_OT0_;	.scl	3;	.type	32;	.endef
	.seh_proc	_ZNSt4pairISt8functionIFbvEENSt7__cxx1112basic_stringIcSt11char_traitsIcESaIcEEEEC2IZ4mainEUlvE54_RA18_KcLb1EEEOT_OT0_
_ZNSt4pairISt8functionIFbvEENSt7__cxx1112basic_stringIcSt11char_traitsIcESaIcEEEEC2IZ4mainEUlvE54_RA18_KcLb1EEEOT_OT0_:
.LFB4171:
	pushq	%rbp
	.seh_pushreg	%rbp
	pushq	%rbx
	.seh_pushreg	%rbx
	subq	$56, %rsp
	.seh_stackalloc	56
	leaq	48(%rsp), %rbp
	.seh_setframe	%rbp, 48
	.seh_endprologue
	movq	%rcx, 32(%rbp)
	movq	%rdx, 40(%rbp)
	movq	%r8, 48(%rbp)
	movq	32(%rbp), %rbx
	movq	40(%rbp), %rax
	movq	%rax, %rcx
	call	_ZSt7forwardIZ4mainEUlvE54_EOT_RNSt16remove_referenceIS1_E4typeE
	movq	%rax, %rdx
	movq	%rbx, %rcx
	call	_ZNSt8functionIFbvEEC1IZ4mainEUlvE54_vEEOT_
	movq	32(%rbp), %rax
	leaq	32(%rax), %rbx
	leaq	-1(%rbp), %rax
	movq	%rax, %rcx
	call	_ZNSaIcEC1Ev
	movq	48(%rbp), %rax
	movq	%rax, %rcx
	call	_ZSt7forwardIRA18_KcEOT_RNSt16remove_referenceIS3_E4typeE
	leaq	-1(%rbp), %rdx
	movq	%rdx, %r8
	movq	%rax, %rdx
	movq	%rbx, %rcx
.LEHB110:
	call	_ZNSt7__cxx1112basic_stringIcSt11char_traitsIcESaIcEEC1IS3_EEPKcRKS3_
.LEHE110:
	leaq	-1(%rbp), %rax
	movq	%rax, %rcx
	call	_ZNSaIcED1Ev
	jmp	.L404
.L403:
	movq	%rax, %rbx
	leaq	-1(%rbp), %rax
	movq	%rax, %rcx
	call	_ZNSaIcED1Ev
	movq	32(%rbp), %rax
	movq	%rax, %rcx
	call	_ZNSt8functionIFbvEED1Ev
	movq	%rbx, %rax
	movq	%rax, %rcx
.LEHB111:
	call	_Unwind_Resume
	nop
.LEHE111:
.L404:
	addq	$56, %rsp
	popq	%rbx
	popq	%rbp
	ret
	.seh_handler	__gxx_personality_seh0, @unwind, @except
	.seh_handlerdata
.LLSDA4171:
	.byte	0xff
	.byte	0xff
	.byte	0x1
	.uleb128 .LLSDACSE4171-.LLSDACSB4171
.LLSDACSB4171:
	.uleb128 .LEHB110-.LFB4171
	.uleb128 .LEHE110-.LEHB110
	.uleb128 .L403-.LFB4171
	.uleb128 0
	.uleb128 .LEHB111-.LFB4171
	.uleb128 .LEHE111-.LEHB111
	.uleb128 0
	.uleb128 0
.LLSDACSE4171:
	.text
	.seh_endproc
	.def	_ZNSt4pairISt8functionIFbvEENSt7__cxx1112basic_stringIcSt11char_traitsIcESaIcEEEEC1IZ4mainEUlvE54_RA18_KcLb1EEEOT_OT0_;	.scl	3;	.type	32;	.endef
	.set	_ZNSt4pairISt8functionIFbvEENSt7__cxx1112basic_stringIcSt11char_traitsIcESaIcEEEEC1IZ4mainEUlvE54_RA18_KcLb1EEEOT_OT0_,_ZNSt4pairISt8functionIFbvEENSt7__cxx1112basic_stringIcSt11char_traitsIcESaIcEEEEC2IZ4mainEUlvE54_RA18_KcLb1EEEOT_OT0_
	.align 2
	.def	_ZNSt4pairISt8functionIFbvEENSt7__cxx1112basic_stringIcSt11char_traitsIcESaIcEEEEC2IZ4mainEUlvE55_RA17_KcLb1EEEOT_OT0_;	.scl	3;	.type	32;	.endef
	.seh_proc	_ZNSt4pairISt8functionIFbvEENSt7__cxx1112basic_stringIcSt11char_traitsIcESaIcEEEEC2IZ4mainEUlvE55_RA17_KcLb1EEEOT_OT0_
_ZNSt4pairISt8functionIFbvEENSt7__cxx1112basic_stringIcSt11char_traitsIcESaIcEEEEC2IZ4mainEUlvE55_RA17_KcLb1EEEOT_OT0_:
.LFB4174:
	pushq	%rbp
	.seh_pushreg	%rbp
	pushq	%rbx
	.seh_pushreg	%rbx
	subq	$56, %rsp
	.seh_stackalloc	56
	leaq	48(%rsp), %rbp
	.seh_setframe	%rbp, 48
	.seh_endprologue
	movq	%rcx, 32(%rbp)
	movq	%rdx, 40(%rbp)
	movq	%r8, 48(%rbp)
	movq	32(%rbp), %rbx
	movq	40(%rbp), %rax
	movq	%rax, %rcx
	call	_ZSt7forwardIZ4mainEUlvE55_EOT_RNSt16remove_referenceIS1_E4typeE
	movq	%rax, %rdx
	movq	%rbx, %rcx
	call	_ZNSt8functionIFbvEEC1IZ4mainEUlvE55_vEEOT_
	movq	32(%rbp), %rax
	leaq	32(%rax), %rbx
	leaq	-1(%rbp), %rax
	movq	%rax, %rcx
	call	_ZNSaIcEC1Ev
	movq	48(%rbp), %rax
	movq	%rax, %rcx
	call	_ZSt7forwardIRA17_KcEOT_RNSt16remove_referenceIS3_E4typeE
	leaq	-1(%rbp), %rdx
	movq	%rdx, %r8
	movq	%rax, %rdx
	movq	%rbx, %rcx
.LEHB112:
	call	_ZNSt7__cxx1112basic_stringIcSt11char_traitsIcESaIcEEC1IS3_EEPKcRKS3_
.LEHE112:
	leaq	-1(%rbp), %rax
	movq	%rax, %rcx
	call	_ZNSaIcED1Ev
	jmp	.L408
.L407:
	movq	%rax, %rbx
	leaq	-1(%rbp), %rax
	movq	%rax, %rcx
	call	_ZNSaIcED1Ev
	movq	32(%rbp), %rax
	movq	%rax, %rcx
	call	_ZNSt8functionIFbvEED1Ev
	movq	%rbx, %rax
	movq	%rax, %rcx
.LEHB113:
	call	_Unwind_Resume
	nop
.LEHE113:
.L408:
	addq	$56, %rsp
	popq	%rbx
	popq	%rbp
	ret
	.seh_handler	__gxx_personality_seh0, @unwind, @except
	.seh_handlerdata
.LLSDA4174:
	.byte	0xff
	.byte	0xff
	.byte	0x1
	.uleb128 .LLSDACSE4174-.LLSDACSB4174
.LLSDACSB4174:
	.uleb128 .LEHB112-.LFB4174
	.uleb128 .LEHE112-.LEHB112
	.uleb128 .L407-.LFB4174
	.uleb128 0
	.uleb128 .LEHB113-.LFB4174
	.uleb128 .LEHE113-.LEHB113
	.uleb128 0
	.uleb128 0
.LLSDACSE4174:
	.text
	.seh_endproc
	.def	_ZNSt4pairISt8functionIFbvEENSt7__cxx1112basic_stringIcSt11char_traitsIcESaIcEEEEC1IZ4mainEUlvE55_RA17_KcLb1EEEOT_OT0_;	.scl	3;	.type	32;	.endef
	.set	_ZNSt4pairISt8functionIFbvEENSt7__cxx1112basic_stringIcSt11char_traitsIcESaIcEEEEC1IZ4mainEUlvE55_RA17_KcLb1EEEOT_OT0_,_ZNSt4pairISt8functionIFbvEENSt7__cxx1112basic_stringIcSt11char_traitsIcESaIcEEEEC2IZ4mainEUlvE55_RA17_KcLb1EEEOT_OT0_
	.align 2
	.def	_ZNSt4pairISt8functionIFbvEENSt7__cxx1112basic_stringIcSt11char_traitsIcESaIcEEEEC2IZ4mainEUlvE56_RA17_KcLb1EEEOT_OT0_;	.scl	3;	.type	32;	.endef
	.seh_proc	_ZNSt4pairISt8functionIFbvEENSt7__cxx1112basic_stringIcSt11char_traitsIcESaIcEEEEC2IZ4mainEUlvE56_RA17_KcLb1EEEOT_OT0_
_ZNSt4pairISt8functionIFbvEENSt7__cxx1112basic_stringIcSt11char_traitsIcESaIcEEEEC2IZ4mainEUlvE56_RA17_KcLb1EEEOT_OT0_:
.LFB4177:
	pushq	%rbp
	.seh_pushreg	%rbp
	pushq	%rbx
	.seh_pushreg	%rbx
	subq	$56, %rsp
	.seh_stackalloc	56
	leaq	48(%rsp), %rbp
	.seh_setframe	%rbp, 48
	.seh_endprologue
	movq	%rcx, 32(%rbp)
	movq	%rdx, 40(%rbp)
	movq	%r8, 48(%rbp)
	movq	32(%rbp), %rbx
	movq	40(%rbp), %rax
	movq	%rax, %rcx
	call	_ZSt7forwardIZ4mainEUlvE56_EOT_RNSt16remove_referenceIS1_E4typeE
	movq	%rax, %rdx
	movq	%rbx, %rcx
	call	_ZNSt8functionIFbvEEC1IZ4mainEUlvE56_vEEOT_
	movq	32(%rbp), %rax
	leaq	32(%rax), %rbx
	leaq	-1(%rbp), %rax
	movq	%rax, %rcx
	call	_ZNSaIcEC1Ev
	movq	48(%rbp), %rax
	movq	%rax, %rcx
	call	_ZSt7forwardIRA17_KcEOT_RNSt16remove_referenceIS3_E4typeE
	leaq	-1(%rbp), %rdx
	movq	%rdx, %r8
	movq	%rax, %rdx
	movq	%rbx, %rcx
.LEHB114:
	call	_ZNSt7__cxx1112basic_stringIcSt11char_traitsIcESaIcEEC1IS3_EEPKcRKS3_
.LEHE114:
	leaq	-1(%rbp), %rax
	movq	%rax, %rcx
	call	_ZNSaIcED1Ev
	jmp	.L412
.L411:
	movq	%rax, %rbx
	leaq	-1(%rbp), %rax
	movq	%rax, %rcx
	call	_ZNSaIcED1Ev
	movq	32(%rbp), %rax
	movq	%rax, %rcx
	call	_ZNSt8functionIFbvEED1Ev
	movq	%rbx, %rax
	movq	%rax, %rcx
.LEHB115:
	call	_Unwind_Resume
	nop
.LEHE115:
.L412:
	addq	$56, %rsp
	popq	%rbx
	popq	%rbp
	ret
	.seh_handler	__gxx_personality_seh0, @unwind, @except
	.seh_handlerdata
.LLSDA4177:
	.byte	0xff
	.byte	0xff
	.byte	0x1
	.uleb128 .LLSDACSE4177-.LLSDACSB4177
.LLSDACSB4177:
	.uleb128 .LEHB114-.LFB4177
	.uleb128 .LEHE114-.LEHB114
	.uleb128 .L411-.LFB4177
	.uleb128 0
	.uleb128 .LEHB115-.LFB4177
	.uleb128 .LEHE115-.LEHB115
	.uleb128 0
	.uleb128 0
.LLSDACSE4177:
	.text
	.seh_endproc
	.def	_ZNSt4pairISt8functionIFbvEENSt7__cxx1112basic_stringIcSt11char_traitsIcESaIcEEEEC1IZ4mainEUlvE56_RA17_KcLb1EEEOT_OT0_;	.scl	3;	.type	32;	.endef
	.set	_ZNSt4pairISt8functionIFbvEENSt7__cxx1112basic_stringIcSt11char_traitsIcESaIcEEEEC1IZ4mainEUlvE56_RA17_KcLb1EEEOT_OT0_,_ZNSt4pairISt8functionIFbvEENSt7__cxx1112basic_stringIcSt11char_traitsIcESaIcEEEEC2IZ4mainEUlvE56_RA17_KcLb1EEEOT_OT0_
	.align 2
	.def	_ZNSt4pairISt8functionIFbvEENSt7__cxx1112basic_stringIcSt11char_traitsIcESaIcEEEEC2IZ4mainEUlvE57_RA21_KcLb1EEEOT_OT0_;	.scl	3;	.type	32;	.endef
	.seh_proc	_ZNSt4pairISt8functionIFbvEENSt7__cxx1112basic_stringIcSt11char_traitsIcESaIcEEEEC2IZ4mainEUlvE57_RA21_KcLb1EEEOT_OT0_
_ZNSt4pairISt8functionIFbvEENSt7__cxx1112basic_stringIcSt11char_traitsIcESaIcEEEEC2IZ4mainEUlvE57_RA21_KcLb1EEEOT_OT0_:
.LFB4180:
	pushq	%rbp
	.seh_pushreg	%rbp
	pushq	%rbx
	.seh_pushreg	%rbx
	subq	$56, %rsp
	.seh_stackalloc	56
	leaq	48(%rsp), %rbp
	.seh_setframe	%rbp, 48
	.seh_endprologue
	movq	%rcx, 32(%rbp)
	movq	%rdx, 40(%rbp)
	movq	%r8, 48(%rbp)
	movq	32(%rbp), %rbx
	movq	40(%rbp), %rax
	movq	%rax, %rcx
	call	_ZSt7forwardIZ4mainEUlvE57_EOT_RNSt16remove_referenceIS1_E4typeE
	movq	%rax, %rdx
	movq	%rbx, %rcx
	call	_ZNSt8functionIFbvEEC1IZ4mainEUlvE57_vEEOT_
	movq	32(%rbp), %rax
	leaq	32(%rax), %rbx
	leaq	-1(%rbp), %rax
	movq	%rax, %rcx
	call	_ZNSaIcEC1Ev
	movq	48(%rbp), %rax
	movq	%rax, %rcx
	call	_ZSt7forwardIRA21_KcEOT_RNSt16remove_referenceIS3_E4typeE
	leaq	-1(%rbp), %rdx
	movq	%rdx, %r8
	movq	%rax, %rdx
	movq	%rbx, %rcx
.LEHB116:
	call	_ZNSt7__cxx1112basic_stringIcSt11char_traitsIcESaIcEEC1IS3_EEPKcRKS3_
.LEHE116:
	leaq	-1(%rbp), %rax
	movq	%rax, %rcx
	call	_ZNSaIcED1Ev
	jmp	.L416
.L415:
	movq	%rax, %rbx
	leaq	-1(%rbp), %rax
	movq	%rax, %rcx
	call	_ZNSaIcED1Ev
	movq	32(%rbp), %rax
	movq	%rax, %rcx
	call	_ZNSt8functionIFbvEED1Ev
	movq	%rbx, %rax
	movq	%rax, %rcx
.LEHB117:
	call	_Unwind_Resume
	nop
.LEHE117:
.L416:
	addq	$56, %rsp
	popq	%rbx
	popq	%rbp
	ret
	.seh_handler	__gxx_personality_seh0, @unwind, @except
	.seh_handlerdata
.LLSDA4180:
	.byte	0xff
	.byte	0xff
	.byte	0x1
	.uleb128 .LLSDACSE4180-.LLSDACSB4180
.LLSDACSB4180:
	.uleb128 .LEHB116-.LFB4180
	.uleb128 .LEHE116-.LEHB116
	.uleb128 .L415-.LFB4180
	.uleb128 0
	.uleb128 .LEHB117-.LFB4180
	.uleb128 .LEHE117-.LEHB117
	.uleb128 0
	.uleb128 0
.LLSDACSE4180:
	.text
	.seh_endproc
	.def	_ZNSt4pairISt8functionIFbvEENSt7__cxx1112basic_stringIcSt11char_traitsIcESaIcEEEEC1IZ4mainEUlvE57_RA21_KcLb1EEEOT_OT0_;	.scl	3;	.type	32;	.endef
	.set	_ZNSt4pairISt8functionIFbvEENSt7__cxx1112basic_stringIcSt11char_traitsIcESaIcEEEEC1IZ4mainEUlvE57_RA21_KcLb1EEEOT_OT0_,_ZNSt4pairISt8functionIFbvEENSt7__cxx1112basic_stringIcSt11char_traitsIcESaIcEEEEC2IZ4mainEUlvE57_RA21_KcLb1EEEOT_OT0_
	.align 2
	.def	_ZNSt4pairISt8functionIFbvEENSt7__cxx1112basic_stringIcSt11char_traitsIcESaIcEEEEC2IZ4mainEUlvE58_RA17_KcLb1EEEOT_OT0_;	.scl	3;	.type	32;	.endef
	.seh_proc	_ZNSt4pairISt8functionIFbvEENSt7__cxx1112basic_stringIcSt11char_traitsIcESaIcEEEEC2IZ4mainEUlvE58_RA17_KcLb1EEEOT_OT0_
_ZNSt4pairISt8functionIFbvEENSt7__cxx1112basic_stringIcSt11char_traitsIcESaIcEEEEC2IZ4mainEUlvE58_RA17_KcLb1EEEOT_OT0_:
.LFB4183:
	pushq	%rbp
	.seh_pushreg	%rbp
	pushq	%rbx
	.seh_pushreg	%rbx
	subq	$56, %rsp
	.seh_stackalloc	56
	leaq	48(%rsp), %rbp
	.seh_setframe	%rbp, 48
	.seh_endprologue
	movq	%rcx, 32(%rbp)
	movq	%rdx, 40(%rbp)
	movq	%r8, 48(%rbp)
	movq	32(%rbp), %rbx
	movq	40(%rbp), %rax
	movq	%rax, %rcx
	call	_ZSt7forwardIZ4mainEUlvE58_EOT_RNSt16remove_referenceIS1_E4typeE
	movq	%rax, %rdx
	movq	%rbx, %rcx
	call	_ZNSt8functionIFbvEEC1IZ4mainEUlvE58_vEEOT_
	movq	32(%rbp), %rax
	leaq	32(%rax), %rbx
	leaq	-1(%rbp), %rax
	movq	%rax, %rcx
	call	_ZNSaIcEC1Ev
	movq	48(%rbp), %rax
	movq	%rax, %rcx
	call	_ZSt7forwardIRA17_KcEOT_RNSt16remove_referenceIS3_E4typeE
	leaq	-1(%rbp), %rdx
	movq	%rdx, %r8
	movq	%rax, %rdx
	movq	%rbx, %rcx
.LEHB118:
	call	_ZNSt7__cxx1112basic_stringIcSt11char_traitsIcESaIcEEC1IS3_EEPKcRKS3_
.LEHE118:
	leaq	-1(%rbp), %rax
	movq	%rax, %rcx
	call	_ZNSaIcED1Ev
	jmp	.L420
.L419:
	movq	%rax, %rbx
	leaq	-1(%rbp), %rax
	movq	%rax, %rcx
	call	_ZNSaIcED1Ev
	movq	32(%rbp), %rax
	movq	%rax, %rcx
	call	_ZNSt8functionIFbvEED1Ev
	movq	%rbx, %rax
	movq	%rax, %rcx
.LEHB119:
	call	_Unwind_Resume
	nop
.LEHE119:
.L420:
	addq	$56, %rsp
	popq	%rbx
	popq	%rbp
	ret
	.seh_handler	__gxx_personality_seh0, @unwind, @except
	.seh_handlerdata
.LLSDA4183:
	.byte	0xff
	.byte	0xff
	.byte	0x1
	.uleb128 .LLSDACSE4183-.LLSDACSB4183
.LLSDACSB4183:
	.uleb128 .LEHB118-.LFB4183
	.uleb128 .LEHE118-.LEHB118
	.uleb128 .L419-.LFB4183
	.uleb128 0
	.uleb128 .LEHB119-.LFB4183
	.uleb128 .LEHE119-.LEHB119
	.uleb128 0
	.uleb128 0
.LLSDACSE4183:
	.text
	.seh_endproc
	.def	_ZNSt4pairISt8functionIFbvEENSt7__cxx1112basic_stringIcSt11char_traitsIcESaIcEEEEC1IZ4mainEUlvE58_RA17_KcLb1EEEOT_OT0_;	.scl	3;	.type	32;	.endef
	.set	_ZNSt4pairISt8functionIFbvEENSt7__cxx1112basic_stringIcSt11char_traitsIcESaIcEEEEC1IZ4mainEUlvE58_RA17_KcLb1EEEOT_OT0_,_ZNSt4pairISt8functionIFbvEENSt7__cxx1112basic_stringIcSt11char_traitsIcESaIcEEEEC2IZ4mainEUlvE58_RA17_KcLb1EEEOT_OT0_
	.align 2
	.def	_ZNSt4pairISt8functionIFbvEENSt7__cxx1112basic_stringIcSt11char_traitsIcESaIcEEEEC2IZ4mainEUlvE59_RA18_KcLb1EEEOT_OT0_;	.scl	3;	.type	32;	.endef
	.seh_proc	_ZNSt4pairISt8functionIFbvEENSt7__cxx1112basic_stringIcSt11char_traitsIcESaIcEEEEC2IZ4mainEUlvE59_RA18_KcLb1EEEOT_OT0_
_ZNSt4pairISt8functionIFbvEENSt7__cxx1112basic_stringIcSt11char_traitsIcESaIcEEEEC2IZ4mainEUlvE59_RA18_KcLb1EEEOT_OT0_:
.LFB4186:
	pushq	%rbp
	.seh_pushreg	%rbp
	pushq	%rbx
	.seh_pushreg	%rbx
	subq	$56, %rsp
	.seh_stackalloc	56
	leaq	48(%rsp), %rbp
	.seh_setframe	%rbp, 48
	.seh_endprologue
	movq	%rcx, 32(%rbp)
	movq	%rdx, 40(%rbp)
	movq	%r8, 48(%rbp)
	movq	32(%rbp), %rbx
	movq	40(%rbp), %rax
	movq	%rax, %rcx
	call	_ZSt7forwardIZ4mainEUlvE59_EOT_RNSt16remove_referenceIS1_E4typeE
	movq	%rax, %rdx
	movq	%rbx, %rcx
	call	_ZNSt8functionIFbvEEC1IZ4mainEUlvE59_vEEOT_
	movq	32(%rbp), %rax
	leaq	32(%rax), %rbx
	leaq	-1(%rbp), %rax
	movq	%rax, %rcx
	call	_ZNSaIcEC1Ev
	movq	48(%rbp), %rax
	movq	%rax, %rcx
	call	_ZSt7forwardIRA18_KcEOT_RNSt16remove_referenceIS3_E4typeE
	leaq	-1(%rbp), %rdx
	movq	%rdx, %r8
	movq	%rax, %rdx
	movq	%rbx, %rcx
.LEHB120:
	call	_ZNSt7__cxx1112basic_stringIcSt11char_traitsIcESaIcEEC1IS3_EEPKcRKS3_
.LEHE120:
	leaq	-1(%rbp), %rax
	movq	%rax, %rcx
	call	_ZNSaIcED1Ev
	jmp	.L424
.L423:
	movq	%rax, %rbx
	leaq	-1(%rbp), %rax
	movq	%rax, %rcx
	call	_ZNSaIcED1Ev
	movq	32(%rbp), %rax
	movq	%rax, %rcx
	call	_ZNSt8functionIFbvEED1Ev
	movq	%rbx, %rax
	movq	%rax, %rcx
.LEHB121:
	call	_Unwind_Resume
	nop
.LEHE121:
.L424:
	addq	$56, %rsp
	popq	%rbx
	popq	%rbp
	ret
	.seh_handler	__gxx_personality_seh0, @unwind, @except
	.seh_handlerdata
.LLSDA4186:
	.byte	0xff
	.byte	0xff
	.byte	0x1
	.uleb128 .LLSDACSE4186-.LLSDACSB4186
.LLSDACSB4186:
	.uleb128 .LEHB120-.LFB4186
	.uleb128 .LEHE120-.LEHB120
	.uleb128 .L423-.LFB4186
	.uleb128 0
	.uleb128 .LEHB121-.LFB4186
	.uleb128 .LEHE121-.LEHB121
	.uleb128 0
	.uleb128 0
.LLSDACSE4186:
	.text
	.seh_endproc
	.def	_ZNSt4pairISt8functionIFbvEENSt7__cxx1112basic_stringIcSt11char_traitsIcESaIcEEEEC1IZ4mainEUlvE59_RA18_KcLb1EEEOT_OT0_;	.scl	3;	.type	32;	.endef
	.set	_ZNSt4pairISt8functionIFbvEENSt7__cxx1112basic_stringIcSt11char_traitsIcESaIcEEEEC1IZ4mainEUlvE59_RA18_KcLb1EEEOT_OT0_,_ZNSt4pairISt8functionIFbvEENSt7__cxx1112basic_stringIcSt11char_traitsIcESaIcEEEEC2IZ4mainEUlvE59_RA18_KcLb1EEEOT_OT0_
	.align 2
	.def	_ZNSt4pairISt8functionIFbvEENSt7__cxx1112basic_stringIcSt11char_traitsIcESaIcEEEEC2IZ4mainEUlvE60_RA17_KcLb1EEEOT_OT0_;	.scl	3;	.type	32;	.endef
	.seh_proc	_ZNSt4pairISt8functionIFbvEENSt7__cxx1112basic_stringIcSt11char_traitsIcESaIcEEEEC2IZ4mainEUlvE60_RA17_KcLb1EEEOT_OT0_
_ZNSt4pairISt8functionIFbvEENSt7__cxx1112basic_stringIcSt11char_traitsIcESaIcEEEEC2IZ4mainEUlvE60_RA17_KcLb1EEEOT_OT0_:
.LFB4189:
	pushq	%rbp
	.seh_pushreg	%rbp
	pushq	%rbx
	.seh_pushreg	%rbx
	subq	$56, %rsp
	.seh_stackalloc	56
	leaq	48(%rsp), %rbp
	.seh_setframe	%rbp, 48
	.seh_endprologue
	movq	%rcx, 32(%rbp)
	movq	%rdx, 40(%rbp)
	movq	%r8, 48(%rbp)
	movq	32(%rbp), %rbx
	movq	40(%rbp), %rax
	movq	%rax, %rcx
	call	_ZSt7forwardIZ4mainEUlvE60_EOT_RNSt16remove_referenceIS1_E4typeE
	movq	%rax, %rdx
	movq	%rbx, %rcx
	call	_ZNSt8functionIFbvEEC1IZ4mainEUlvE60_vEEOT_
	movq	32(%rbp), %rax
	leaq	32(%rax), %rbx
	leaq	-1(%rbp), %rax
	movq	%rax, %rcx
	call	_ZNSaIcEC1Ev
	movq	48(%rbp), %rax
	movq	%rax, %rcx
	call	_ZSt7forwardIRA17_KcEOT_RNSt16remove_referenceIS3_E4typeE
	leaq	-1(%rbp), %rdx
	movq	%rdx, %r8
	movq	%rax, %rdx
	movq	%rbx, %rcx
.LEHB122:
	call	_ZNSt7__cxx1112basic_stringIcSt11char_traitsIcESaIcEEC1IS3_EEPKcRKS3_
.LEHE122:
	leaq	-1(%rbp), %rax
	movq	%rax, %rcx
	call	_ZNSaIcED1Ev
	jmp	.L428
.L427:
	movq	%rax, %rbx
	leaq	-1(%rbp), %rax
	movq	%rax, %rcx
	call	_ZNSaIcED1Ev
	movq	32(%rbp), %rax
	movq	%rax, %rcx
	call	_ZNSt8functionIFbvEED1Ev
	movq	%rbx, %rax
	movq	%rax, %rcx
.LEHB123:
	call	_Unwind_Resume
	nop
.LEHE123:
.L428:
	addq	$56, %rsp
	popq	%rbx
	popq	%rbp
	ret
	.seh_handler	__gxx_personality_seh0, @unwind, @except
	.seh_handlerdata
.LLSDA4189:
	.byte	0xff
	.byte	0xff
	.byte	0x1
	.uleb128 .LLSDACSE4189-.LLSDACSB4189
.LLSDACSB4189:
	.uleb128 .LEHB122-.LFB4189
	.uleb128 .LEHE122-.LEHB122
	.uleb128 .L427-.LFB4189
	.uleb128 0
	.uleb128 .LEHB123-.LFB4189
	.uleb128 .LEHE123-.LEHB123
	.uleb128 0
	.uleb128 0
.LLSDACSE4189:
	.text
	.seh_endproc
	.def	_ZNSt4pairISt8functionIFbvEENSt7__cxx1112basic_stringIcSt11char_traitsIcESaIcEEEEC1IZ4mainEUlvE60_RA17_KcLb1EEEOT_OT0_;	.scl	3;	.type	32;	.endef
	.set	_ZNSt4pairISt8functionIFbvEENSt7__cxx1112basic_stringIcSt11char_traitsIcESaIcEEEEC1IZ4mainEUlvE60_RA17_KcLb1EEEOT_OT0_,_ZNSt4pairISt8functionIFbvEENSt7__cxx1112basic_stringIcSt11char_traitsIcESaIcEEEEC2IZ4mainEUlvE60_RA17_KcLb1EEEOT_OT0_
	.align 2
	.def	_ZNSt4pairISt8functionIFbvEENSt7__cxx1112basic_stringIcSt11char_traitsIcESaIcEEEEC2IZ4mainEUlvE61_RA20_KcLb1EEEOT_OT0_;	.scl	3;	.type	32;	.endef
	.seh_proc	_ZNSt4pairISt8functionIFbvEENSt7__cxx1112basic_stringIcSt11char_traitsIcESaIcEEEEC2IZ4mainEUlvE61_RA20_KcLb1EEEOT_OT0_
_ZNSt4pairISt8functionIFbvEENSt7__cxx1112basic_stringIcSt11char_traitsIcESaIcEEEEC2IZ4mainEUlvE61_RA20_KcLb1EEEOT_OT0_:
.LFB4192:
	pushq	%rbp
	.seh_pushreg	%rbp
	pushq	%rbx
	.seh_pushreg	%rbx
	subq	$56, %rsp
	.seh_stackalloc	56
	leaq	48(%rsp), %rbp
	.seh_setframe	%rbp, 48
	.seh_endprologue
	movq	%rcx, 32(%rbp)
	movq	%rdx, 40(%rbp)
	movq	%r8, 48(%rbp)
	movq	32(%rbp), %rbx
	movq	40(%rbp), %rax
	movq	%rax, %rcx
	call	_ZSt7forwardIZ4mainEUlvE61_EOT_RNSt16remove_referenceIS1_E4typeE
	movq	%rax, %rdx
	movq	%rbx, %rcx
	call	_ZNSt8functionIFbvEEC1IZ4mainEUlvE61_vEEOT_
	movq	32(%rbp), %rax
	leaq	32(%rax), %rbx
	leaq	-1(%rbp), %rax
	movq	%rax, %rcx
	call	_ZNSaIcEC1Ev
	movq	48(%rbp), %rax
	movq	%rax, %rcx
	call	_ZSt7forwardIRA20_KcEOT_RNSt16remove_referenceIS3_E4typeE
	leaq	-1(%rbp), %rdx
	movq	%rdx, %r8
	movq	%rax, %rdx
	movq	%rbx, %rcx
.LEHB124:
	call	_ZNSt7__cxx1112basic_stringIcSt11char_traitsIcESaIcEEC1IS3_EEPKcRKS3_
.LEHE124:
	leaq	-1(%rbp), %rax
	movq	%rax, %rcx
	call	_ZNSaIcED1Ev
	jmp	.L432
.L431:
	movq	%rax, %rbx
	leaq	-1(%rbp), %rax
	movq	%rax, %rcx
	call	_ZNSaIcED1Ev
	movq	32(%rbp), %rax
	movq	%rax, %rcx
	call	_ZNSt8functionIFbvEED1Ev
	movq	%rbx, %rax
	movq	%rax, %rcx
.LEHB125:
	call	_Unwind_Resume
	nop
.LEHE125:
.L432:
	addq	$56, %rsp
	popq	%rbx
	popq	%rbp
	ret
	.seh_handler	__gxx_personality_seh0, @unwind, @except
	.seh_handlerdata
.LLSDA4192:
	.byte	0xff
	.byte	0xff
	.byte	0x1
	.uleb128 .LLSDACSE4192-.LLSDACSB4192
.LLSDACSB4192:
	.uleb128 .LEHB124-.LFB4192
	.uleb128 .LEHE124-.LEHB124
	.uleb128 .L431-.LFB4192
	.uleb128 0
	.uleb128 .LEHB125-.LFB4192
	.uleb128 .LEHE125-.LEHB125
	.uleb128 0
	.uleb128 0
.LLSDACSE4192:
	.text
	.seh_endproc
	.def	_ZNSt4pairISt8functionIFbvEENSt7__cxx1112basic_stringIcSt11char_traitsIcESaIcEEEEC1IZ4mainEUlvE61_RA20_KcLb1EEEOT_OT0_;	.scl	3;	.type	32;	.endef
	.set	_ZNSt4pairISt8functionIFbvEENSt7__cxx1112basic_stringIcSt11char_traitsIcESaIcEEEEC1IZ4mainEUlvE61_RA20_KcLb1EEEOT_OT0_,_ZNSt4pairISt8functionIFbvEENSt7__cxx1112basic_stringIcSt11char_traitsIcESaIcEEEEC2IZ4mainEUlvE61_RA20_KcLb1EEEOT_OT0_
	.align 2
	.def	_ZNSt4pairISt8functionIFbvEENSt7__cxx1112basic_stringIcSt11char_traitsIcESaIcEEEEC2IZ4mainEUlvE62_RA22_KcLb1EEEOT_OT0_;	.scl	3;	.type	32;	.endef
	.seh_proc	_ZNSt4pairISt8functionIFbvEENSt7__cxx1112basic_stringIcSt11char_traitsIcESaIcEEEEC2IZ4mainEUlvE62_RA22_KcLb1EEEOT_OT0_
_ZNSt4pairISt8functionIFbvEENSt7__cxx1112basic_stringIcSt11char_traitsIcESaIcEEEEC2IZ4mainEUlvE62_RA22_KcLb1EEEOT_OT0_:
.LFB4195:
	pushq	%rbp
	.seh_pushreg	%rbp
	pushq	%rbx
	.seh_pushreg	%rbx
	subq	$56, %rsp
	.seh_stackalloc	56
	leaq	48(%rsp), %rbp
	.seh_setframe	%rbp, 48
	.seh_endprologue
	movq	%rcx, 32(%rbp)
	movq	%rdx, 40(%rbp)
	movq	%r8, 48(%rbp)
	movq	32(%rbp), %rbx
	movq	40(%rbp), %rax
	movq	%rax, %rcx
	call	_ZSt7forwardIZ4mainEUlvE62_EOT_RNSt16remove_referenceIS1_E4typeE
	movq	%rax, %rdx
	movq	%rbx, %rcx
	call	_ZNSt8functionIFbvEEC1IZ4mainEUlvE62_vEEOT_
	movq	32(%rbp), %rax
	leaq	32(%rax), %rbx
	leaq	-1(%rbp), %rax
	movq	%rax, %rcx
	call	_ZNSaIcEC1Ev
	movq	48(%rbp), %rax
	movq	%rax, %rcx
	call	_ZSt7forwardIRA22_KcEOT_RNSt16remove_referenceIS3_E4typeE
	leaq	-1(%rbp), %rdx
	movq	%rdx, %r8
	movq	%rax, %rdx
	movq	%rbx, %rcx
.LEHB126:
	call	_ZNSt7__cxx1112basic_stringIcSt11char_traitsIcESaIcEEC1IS3_EEPKcRKS3_
.LEHE126:
	leaq	-1(%rbp), %rax
	movq	%rax, %rcx
	call	_ZNSaIcED1Ev
	jmp	.L436
.L435:
	movq	%rax, %rbx
	leaq	-1(%rbp), %rax
	movq	%rax, %rcx
	call	_ZNSaIcED1Ev
	movq	32(%rbp), %rax
	movq	%rax, %rcx
	call	_ZNSt8functionIFbvEED1Ev
	movq	%rbx, %rax
	movq	%rax, %rcx
.LEHB127:
	call	_Unwind_Resume
	nop
.LEHE127:
.L436:
	addq	$56, %rsp
	popq	%rbx
	popq	%rbp
	ret
	.seh_handler	__gxx_personality_seh0, @unwind, @except
	.seh_handlerdata
.LLSDA4195:
	.byte	0xff
	.byte	0xff
	.byte	0x1
	.uleb128 .LLSDACSE4195-.LLSDACSB4195
.LLSDACSB4195:
	.uleb128 .LEHB126-.LFB4195
	.uleb128 .LEHE126-.LEHB126
	.uleb128 .L435-.LFB4195
	.uleb128 0
	.uleb128 .LEHB127-.LFB4195
	.uleb128 .LEHE127-.LEHB127
	.uleb128 0
	.uleb128 0
.LLSDACSE4195:
	.text
	.seh_endproc
	.def	_ZNSt4pairISt8functionIFbvEENSt7__cxx1112basic_stringIcSt11char_traitsIcESaIcEEEEC1IZ4mainEUlvE62_RA22_KcLb1EEEOT_OT0_;	.scl	3;	.type	32;	.endef
	.set	_ZNSt4pairISt8functionIFbvEENSt7__cxx1112basic_stringIcSt11char_traitsIcESaIcEEEEC1IZ4mainEUlvE62_RA22_KcLb1EEEOT_OT0_,_ZNSt4pairISt8functionIFbvEENSt7__cxx1112basic_stringIcSt11char_traitsIcESaIcEEEEC2IZ4mainEUlvE62_RA22_KcLb1EEEOT_OT0_
	.align 2
	.def	_ZNSt4pairISt8functionIFbvEENSt7__cxx1112basic_stringIcSt11char_traitsIcESaIcEEEEC2IZ4mainEUlvE63_RA22_KcLb1EEEOT_OT0_;	.scl	3;	.type	32;	.endef
	.seh_proc	_ZNSt4pairISt8functionIFbvEENSt7__cxx1112basic_stringIcSt11char_traitsIcESaIcEEEEC2IZ4mainEUlvE63_RA22_KcLb1EEEOT_OT0_
_ZNSt4pairISt8functionIFbvEENSt7__cxx1112basic_stringIcSt11char_traitsIcESaIcEEEEC2IZ4mainEUlvE63_RA22_KcLb1EEEOT_OT0_:
.LFB4198:
	pushq	%rbp
	.seh_pushreg	%rbp
	pushq	%rbx
	.seh_pushreg	%rbx
	subq	$56, %rsp
	.seh_stackalloc	56
	leaq	48(%rsp), %rbp
	.seh_setframe	%rbp, 48
	.seh_endprologue
	movq	%rcx, 32(%rbp)
	movq	%rdx, 40(%rbp)
	movq	%r8, 48(%rbp)
	movq	32(%rbp), %rbx
	movq	40(%rbp), %rax
	movq	%rax, %rcx
	call	_ZSt7forwardIZ4mainEUlvE63_EOT_RNSt16remove_referenceIS1_E4typeE
	movq	%rax, %rdx
	movq	%rbx, %rcx
	call	_ZNSt8functionIFbvEEC1IZ4mainEUlvE63_vEEOT_
	movq	32(%rbp), %rax
	leaq	32(%rax), %rbx
	leaq	-1(%rbp), %rax
	movq	%rax, %rcx
	call	_ZNSaIcEC1Ev
	movq	48(%rbp), %rax
	movq	%rax, %rcx
	call	_ZSt7forwardIRA22_KcEOT_RNSt16remove_referenceIS3_E4typeE
	leaq	-1(%rbp), %rdx
	movq	%rdx, %r8
	movq	%rax, %rdx
	movq	%rbx, %rcx
.LEHB128:
	call	_ZNSt7__cxx1112basic_stringIcSt11char_traitsIcESaIcEEC1IS3_EEPKcRKS3_
.LEHE128:
	leaq	-1(%rbp), %rax
	movq	%rax, %rcx
	call	_ZNSaIcED1Ev
	jmp	.L440
.L439:
	movq	%rax, %rbx
	leaq	-1(%rbp), %rax
	movq	%rax, %rcx
	call	_ZNSaIcED1Ev
	movq	32(%rbp), %rax
	movq	%rax, %rcx
	call	_ZNSt8functionIFbvEED1Ev
	movq	%rbx, %rax
	movq	%rax, %rcx
.LEHB129:
	call	_Unwind_Resume
	nop
.LEHE129:
.L440:
	addq	$56, %rsp
	popq	%rbx
	popq	%rbp
	ret
	.seh_handler	__gxx_personality_seh0, @unwind, @except
	.seh_handlerdata
.LLSDA4198:
	.byte	0xff
	.byte	0xff
	.byte	0x1
	.uleb128 .LLSDACSE4198-.LLSDACSB4198
.LLSDACSB4198:
	.uleb128 .LEHB128-.LFB4198
	.uleb128 .LEHE128-.LEHB128
	.uleb128 .L439-.LFB4198
	.uleb128 0
	.uleb128 .LEHB129-.LFB4198
	.uleb128 .LEHE129-.LEHB129
	.uleb128 0
	.uleb128 0
.LLSDACSE4198:
	.text
	.seh_endproc
	.def	_ZNSt4pairISt8functionIFbvEENSt7__cxx1112basic_stringIcSt11char_traitsIcESaIcEEEEC1IZ4mainEUlvE63_RA22_KcLb1EEEOT_OT0_;	.scl	3;	.type	32;	.endef
	.set	_ZNSt4pairISt8functionIFbvEENSt7__cxx1112basic_stringIcSt11char_traitsIcESaIcEEEEC1IZ4mainEUlvE63_RA22_KcLb1EEEOT_OT0_,_ZNSt4pairISt8functionIFbvEENSt7__cxx1112basic_stringIcSt11char_traitsIcESaIcEEEEC2IZ4mainEUlvE63_RA22_KcLb1EEEOT_OT0_
	.align 2
	.def	_ZNSt4pairISt8functionIFbvEENSt7__cxx1112basic_stringIcSt11char_traitsIcESaIcEEEEC2IZ4mainEUlvE64_RA22_KcLb1EEEOT_OT0_;	.scl	3;	.type	32;	.endef
	.seh_proc	_ZNSt4pairISt8functionIFbvEENSt7__cxx1112basic_stringIcSt11char_traitsIcESaIcEEEEC2IZ4mainEUlvE64_RA22_KcLb1EEEOT_OT0_
_ZNSt4pairISt8functionIFbvEENSt7__cxx1112basic_stringIcSt11char_traitsIcESaIcEEEEC2IZ4mainEUlvE64_RA22_KcLb1EEEOT_OT0_:
.LFB4201:
	pushq	%rbp
	.seh_pushreg	%rbp
	pushq	%rbx
	.seh_pushreg	%rbx
	subq	$56, %rsp
	.seh_stackalloc	56
	leaq	48(%rsp), %rbp
	.seh_setframe	%rbp, 48
	.seh_endprologue
	movq	%rcx, 32(%rbp)
	movq	%rdx, 40(%rbp)
	movq	%r8, 48(%rbp)
	movq	32(%rbp), %rbx
	movq	40(%rbp), %rax
	movq	%rax, %rcx
	call	_ZSt7forwardIZ4mainEUlvE64_EOT_RNSt16remove_referenceIS1_E4typeE
	movq	%rax, %rdx
	movq	%rbx, %rcx
	call	_ZNSt8functionIFbvEEC1IZ4mainEUlvE64_vEEOT_
	movq	32(%rbp), %rax
	leaq	32(%rax), %rbx
	leaq	-1(%rbp), %rax
	movq	%rax, %rcx
	call	_ZNSaIcEC1Ev
	movq	48(%rbp), %rax
	movq	%rax, %rcx
	call	_ZSt7forwardIRA22_KcEOT_RNSt16remove_referenceIS3_E4typeE
	leaq	-1(%rbp), %rdx
	movq	%rdx, %r8
	movq	%rax, %rdx
	movq	%rbx, %rcx
.LEHB130:
	call	_ZNSt7__cxx1112basic_stringIcSt11char_traitsIcESaIcEEC1IS3_EEPKcRKS3_
.LEHE130:
	leaq	-1(%rbp), %rax
	movq	%rax, %rcx
	call	_ZNSaIcED1Ev
	jmp	.L444
.L443:
	movq	%rax, %rbx
	leaq	-1(%rbp), %rax
	movq	%rax, %rcx
	call	_ZNSaIcED1Ev
	movq	32(%rbp), %rax
	movq	%rax, %rcx
	call	_ZNSt8functionIFbvEED1Ev
	movq	%rbx, %rax
	movq	%rax, %rcx
.LEHB131:
	call	_Unwind_Resume
	nop
.LEHE131:
.L444:
	addq	$56, %rsp
	popq	%rbx
	popq	%rbp
	ret
	.seh_handler	__gxx_personality_seh0, @unwind, @except
	.seh_handlerdata
.LLSDA4201:
	.byte	0xff
	.byte	0xff
	.byte	0x1
	.uleb128 .LLSDACSE4201-.LLSDACSB4201
.LLSDACSB4201:
	.uleb128 .LEHB130-.LFB4201
	.uleb128 .LEHE130-.LEHB130
	.uleb128 .L443-.LFB4201
	.uleb128 0
	.uleb128 .LEHB131-.LFB4201
	.uleb128 .LEHE131-.LEHB131
	.uleb128 0
	.uleb128 0
.LLSDACSE4201:
	.text
	.seh_endproc
	.def	_ZNSt4pairISt8functionIFbvEENSt7__cxx1112basic_stringIcSt11char_traitsIcESaIcEEEEC1IZ4mainEUlvE64_RA22_KcLb1EEEOT_OT0_;	.scl	3;	.type	32;	.endef
	.set	_ZNSt4pairISt8functionIFbvEENSt7__cxx1112basic_stringIcSt11char_traitsIcESaIcEEEEC1IZ4mainEUlvE64_RA22_KcLb1EEEOT_OT0_,_ZNSt4pairISt8functionIFbvEENSt7__cxx1112basic_stringIcSt11char_traitsIcESaIcEEEEC2IZ4mainEUlvE64_RA22_KcLb1EEEOT_OT0_
	.align 2
	.def	_ZNSt4pairISt8functionIFbvEENSt7__cxx1112basic_stringIcSt11char_traitsIcESaIcEEEEC2IZ4mainEUlvE65_RA22_KcLb1EEEOT_OT0_;	.scl	3;	.type	32;	.endef
	.seh_proc	_ZNSt4pairISt8functionIFbvEENSt7__cxx1112basic_stringIcSt11char_traitsIcESaIcEEEEC2IZ4mainEUlvE65_RA22_KcLb1EEEOT_OT0_
_ZNSt4pairISt8functionIFbvEENSt7__cxx1112basic_stringIcSt11char_traitsIcESaIcEEEEC2IZ4mainEUlvE65_RA22_KcLb1EEEOT_OT0_:
.LFB4204:
	pushq	%rbp
	.seh_pushreg	%rbp
	pushq	%rbx
	.seh_pushreg	%rbx
	subq	$56, %rsp
	.seh_stackalloc	56
	leaq	48(%rsp), %rbp
	.seh_setframe	%rbp, 48
	.seh_endprologue
	movq	%rcx, 32(%rbp)
	movq	%rdx, 40(%rbp)
	movq	%r8, 48(%rbp)
	movq	32(%rbp), %rbx
	movq	40(%rbp), %rax
	movq	%rax, %rcx
	call	_ZSt7forwardIZ4mainEUlvE65_EOT_RNSt16remove_referenceIS1_E4typeE
	movq	%rax, %rdx
	movq	%rbx, %rcx
	call	_ZNSt8functionIFbvEEC1IZ4mainEUlvE65_vEEOT_
	movq	32(%rbp), %rax
	leaq	32(%rax), %rbx
	leaq	-1(%rbp), %rax
	movq	%rax, %rcx
	call	_ZNSaIcEC1Ev
	movq	48(%rbp), %rax
	movq	%rax, %rcx
	call	_ZSt7forwardIRA22_KcEOT_RNSt16remove_referenceIS3_E4typeE
	leaq	-1(%rbp), %rdx
	movq	%rdx, %r8
	movq	%rax, %rdx
	movq	%rbx, %rcx
.LEHB132:
	call	_ZNSt7__cxx1112basic_stringIcSt11char_traitsIcESaIcEEC1IS3_EEPKcRKS3_
.LEHE132:
	leaq	-1(%rbp), %rax
	movq	%rax, %rcx
	call	_ZNSaIcED1Ev
	jmp	.L448
.L447:
	movq	%rax, %rbx
	leaq	-1(%rbp), %rax
	movq	%rax, %rcx
	call	_ZNSaIcED1Ev
	movq	32(%rbp), %rax
	movq	%rax, %rcx
	call	_ZNSt8functionIFbvEED1Ev
	movq	%rbx, %rax
	movq	%rax, %rcx
.LEHB133:
	call	_Unwind_Resume
	nop
.LEHE133:
.L448:
	addq	$56, %rsp
	popq	%rbx
	popq	%rbp
	ret
	.seh_handler	__gxx_personality_seh0, @unwind, @except
	.seh_handlerdata
.LLSDA4204:
	.byte	0xff
	.byte	0xff
	.byte	0x1
	.uleb128 .LLSDACSE4204-.LLSDACSB4204
.LLSDACSB4204:
	.uleb128 .LEHB132-.LFB4204
	.uleb128 .LEHE132-.LEHB132
	.uleb128 .L447-.LFB4204
	.uleb128 0
	.uleb128 .LEHB133-.LFB4204
	.uleb128 .LEHE133-.LEHB133
	.uleb128 0
	.uleb128 0
.LLSDACSE4204:
	.text
	.seh_endproc
	.def	_ZNSt4pairISt8functionIFbvEENSt7__cxx1112basic_stringIcSt11char_traitsIcESaIcEEEEC1IZ4mainEUlvE65_RA22_KcLb1EEEOT_OT0_;	.scl	3;	.type	32;	.endef
	.set	_ZNSt4pairISt8functionIFbvEENSt7__cxx1112basic_stringIcSt11char_traitsIcESaIcEEEEC1IZ4mainEUlvE65_RA22_KcLb1EEEOT_OT0_,_ZNSt4pairISt8functionIFbvEENSt7__cxx1112basic_stringIcSt11char_traitsIcESaIcEEEEC2IZ4mainEUlvE65_RA22_KcLb1EEEOT_OT0_
	.align 2
	.def	_ZNSt4pairISt8functionIFbvEENSt7__cxx1112basic_stringIcSt11char_traitsIcESaIcEEEEC2IZ4mainEUlvE66_RA22_KcLb1EEEOT_OT0_;	.scl	3;	.type	32;	.endef
	.seh_proc	_ZNSt4pairISt8functionIFbvEENSt7__cxx1112basic_stringIcSt11char_traitsIcESaIcEEEEC2IZ4mainEUlvE66_RA22_KcLb1EEEOT_OT0_
_ZNSt4pairISt8functionIFbvEENSt7__cxx1112basic_stringIcSt11char_traitsIcESaIcEEEEC2IZ4mainEUlvE66_RA22_KcLb1EEEOT_OT0_:
.LFB4207:
	pushq	%rbp
	.seh_pushreg	%rbp
	pushq	%rbx
	.seh_pushreg	%rbx
	subq	$56, %rsp
	.seh_stackalloc	56
	leaq	48(%rsp), %rbp
	.seh_setframe	%rbp, 48
	.seh_endprologue
	movq	%rcx, 32(%rbp)
	movq	%rdx, 40(%rbp)
	movq	%r8, 48(%rbp)
	movq	32(%rbp), %rbx
	movq	40(%rbp), %rax
	movq	%rax, %rcx
	call	_ZSt7forwardIZ4mainEUlvE66_EOT_RNSt16remove_referenceIS1_E4typeE
	movq	%rax, %rdx
	movq	%rbx, %rcx
	call	_ZNSt8functionIFbvEEC1IZ4mainEUlvE66_vEEOT_
	movq	32(%rbp), %rax
	leaq	32(%rax), %rbx
	leaq	-1(%rbp), %rax
	movq	%rax, %rcx
	call	_ZNSaIcEC1Ev
	movq	48(%rbp), %rax
	movq	%rax, %rcx
	call	_ZSt7forwardIRA22_KcEOT_RNSt16remove_referenceIS3_E4typeE
	leaq	-1(%rbp), %rdx
	movq	%rdx, %r8
	movq	%rax, %rdx
	movq	%rbx, %rcx
.LEHB134:
	call	_ZNSt7__cxx1112basic_stringIcSt11char_traitsIcESaIcEEC1IS3_EEPKcRKS3_
.LEHE134:
	leaq	-1(%rbp), %rax
	movq	%rax, %rcx
	call	_ZNSaIcED1Ev
	jmp	.L452
.L451:
	movq	%rax, %rbx
	leaq	-1(%rbp), %rax
	movq	%rax, %rcx
	call	_ZNSaIcED1Ev
	movq	32(%rbp), %rax
	movq	%rax, %rcx
	call	_ZNSt8functionIFbvEED1Ev
	movq	%rbx, %rax
	movq	%rax, %rcx
.LEHB135:
	call	_Unwind_Resume
	nop
.LEHE135:
.L452:
	addq	$56, %rsp
	popq	%rbx
	popq	%rbp
	ret
	.seh_handler	__gxx_personality_seh0, @unwind, @except
	.seh_handlerdata
.LLSDA4207:
	.byte	0xff
	.byte	0xff
	.byte	0x1
	.uleb128 .LLSDACSE4207-.LLSDACSB4207
.LLSDACSB4207:
	.uleb128 .LEHB134-.LFB4207
	.uleb128 .LEHE134-.LEHB134
	.uleb128 .L451-.LFB4207
	.uleb128 0
	.uleb128 .LEHB135-.LFB4207
	.uleb128 .LEHE135-.LEHB135
	.uleb128 0
	.uleb128 0
.LLSDACSE4207:
	.text
	.seh_endproc
	.def	_ZNSt4pairISt8functionIFbvEENSt7__cxx1112basic_stringIcSt11char_traitsIcESaIcEEEEC1IZ4mainEUlvE66_RA22_KcLb1EEEOT_OT0_;	.scl	3;	.type	32;	.endef
	.set	_ZNSt4pairISt8functionIFbvEENSt7__cxx1112basic_stringIcSt11char_traitsIcESaIcEEEEC1IZ4mainEUlvE66_RA22_KcLb1EEEOT_OT0_,_ZNSt4pairISt8functionIFbvEENSt7__cxx1112basic_stringIcSt11char_traitsIcESaIcEEEEC2IZ4mainEUlvE66_RA22_KcLb1EEEOT_OT0_
	.align 2
	.def	_ZNSt4pairISt8functionIFbvEENSt7__cxx1112basic_stringIcSt11char_traitsIcESaIcEEEEC2IZ4mainEUlvE67_RA22_KcLb1EEEOT_OT0_;	.scl	3;	.type	32;	.endef
	.seh_proc	_ZNSt4pairISt8functionIFbvEENSt7__cxx1112basic_stringIcSt11char_traitsIcESaIcEEEEC2IZ4mainEUlvE67_RA22_KcLb1EEEOT_OT0_
_ZNSt4pairISt8functionIFbvEENSt7__cxx1112basic_stringIcSt11char_traitsIcESaIcEEEEC2IZ4mainEUlvE67_RA22_KcLb1EEEOT_OT0_:
.LFB4210:
	pushq	%rbp
	.seh_pushreg	%rbp
	pushq	%rbx
	.seh_pushreg	%rbx
	subq	$56, %rsp
	.seh_stackalloc	56
	leaq	48(%rsp), %rbp
	.seh_setframe	%rbp, 48
	.seh_endprologue
	movq	%rcx, 32(%rbp)
	movq	%rdx, 40(%rbp)
	movq	%r8, 48(%rbp)
	movq	32(%rbp), %rbx
	movq	40(%rbp), %rax
	movq	%rax, %rcx
	call	_ZSt7forwardIZ4mainEUlvE67_EOT_RNSt16remove_referenceIS1_E4typeE
	movq	%rax, %rdx
	movq	%rbx, %rcx
	call	_ZNSt8functionIFbvEEC1IZ4mainEUlvE67_vEEOT_
	movq	32(%rbp), %rax
	leaq	32(%rax), %rbx
	leaq	-1(%rbp), %rax
	movq	%rax, %rcx
	call	_ZNSaIcEC1Ev
	movq	48(%rbp), %rax
	movq	%rax, %rcx
	call	_ZSt7forwardIRA22_KcEOT_RNSt16remove_referenceIS3_E4typeE
	leaq	-1(%rbp), %rdx
	movq	%rdx, %r8
	movq	%rax, %rdx
	movq	%rbx, %rcx
.LEHB136:
	call	_ZNSt7__cxx1112basic_stringIcSt11char_traitsIcESaIcEEC1IS3_EEPKcRKS3_
.LEHE136:
	leaq	-1(%rbp), %rax
	movq	%rax, %rcx
	call	_ZNSaIcED1Ev
	jmp	.L456
.L455:
	movq	%rax, %rbx
	leaq	-1(%rbp), %rax
	movq	%rax, %rcx
	call	_ZNSaIcED1Ev
	movq	32(%rbp), %rax
	movq	%rax, %rcx
	call	_ZNSt8functionIFbvEED1Ev
	movq	%rbx, %rax
	movq	%rax, %rcx
.LEHB137:
	call	_Unwind_Resume
	nop
.LEHE137:
.L456:
	addq	$56, %rsp
	popq	%rbx
	popq	%rbp
	ret
	.seh_handler	__gxx_personality_seh0, @unwind, @except
	.seh_handlerdata
.LLSDA4210:
	.byte	0xff
	.byte	0xff
	.byte	0x1
	.uleb128 .LLSDACSE4210-.LLSDACSB4210
.LLSDACSB4210:
	.uleb128 .LEHB136-.LFB4210
	.uleb128 .LEHE136-.LEHB136
	.uleb128 .L455-.LFB4210
	.uleb128 0
	.uleb128 .LEHB137-.LFB4210
	.uleb128 .LEHE137-.LEHB137
	.uleb128 0
	.uleb128 0
.LLSDACSE4210:
	.text
	.seh_endproc
	.def	_ZNSt4pairISt8functionIFbvEENSt7__cxx1112basic_stringIcSt11char_traitsIcESaIcEEEEC1IZ4mainEUlvE67_RA22_KcLb1EEEOT_OT0_;	.scl	3;	.type	32;	.endef
	.set	_ZNSt4pairISt8functionIFbvEENSt7__cxx1112basic_stringIcSt11char_traitsIcESaIcEEEEC1IZ4mainEUlvE67_RA22_KcLb1EEEOT_OT0_,_ZNSt4pairISt8functionIFbvEENSt7__cxx1112basic_stringIcSt11char_traitsIcESaIcEEEEC2IZ4mainEUlvE67_RA22_KcLb1EEEOT_OT0_
	.align 2
	.def	_ZNSt4pairISt8functionIFbvEENSt7__cxx1112basic_stringIcSt11char_traitsIcESaIcEEEEC2IZ4mainEUlvE68_RA24_KcLb1EEEOT_OT0_;	.scl	3;	.type	32;	.endef
	.seh_proc	_ZNSt4pairISt8functionIFbvEENSt7__cxx1112basic_stringIcSt11char_traitsIcESaIcEEEEC2IZ4mainEUlvE68_RA24_KcLb1EEEOT_OT0_
_ZNSt4pairISt8functionIFbvEENSt7__cxx1112basic_stringIcSt11char_traitsIcESaIcEEEEC2IZ4mainEUlvE68_RA24_KcLb1EEEOT_OT0_:
.LFB4213:
	pushq	%rbp
	.seh_pushreg	%rbp
	pushq	%rbx
	.seh_pushreg	%rbx
	subq	$56, %rsp
	.seh_stackalloc	56
	leaq	48(%rsp), %rbp
	.seh_setframe	%rbp, 48
	.seh_endprologue
	movq	%rcx, 32(%rbp)
	movq	%rdx, 40(%rbp)
	movq	%r8, 48(%rbp)
	movq	32(%rbp), %rbx
	movq	40(%rbp), %rax
	movq	%rax, %rcx
	call	_ZSt7forwardIZ4mainEUlvE68_EOT_RNSt16remove_referenceIS1_E4typeE
	movq	%rax, %rdx
	movq	%rbx, %rcx
	call	_ZNSt8functionIFbvEEC1IZ4mainEUlvE68_vEEOT_
	movq	32(%rbp), %rax
	leaq	32(%rax), %rbx
	leaq	-1(%rbp), %rax
	movq	%rax, %rcx
	call	_ZNSaIcEC1Ev
	movq	48(%rbp), %rax
	movq	%rax, %rcx
	call	_ZSt7forwardIRA24_KcEOT_RNSt16remove_referenceIS3_E4typeE
	leaq	-1(%rbp), %rdx
	movq	%rdx, %r8
	movq	%rax, %rdx
	movq	%rbx, %rcx
.LEHB138:
	call	_ZNSt7__cxx1112basic_stringIcSt11char_traitsIcESaIcEEC1IS3_EEPKcRKS3_
.LEHE138:
	leaq	-1(%rbp), %rax
	movq	%rax, %rcx
	call	_ZNSaIcED1Ev
	jmp	.L460
.L459:
	movq	%rax, %rbx
	leaq	-1(%rbp), %rax
	movq	%rax, %rcx
	call	_ZNSaIcED1Ev
	movq	32(%rbp), %rax
	movq	%rax, %rcx
	call	_ZNSt8functionIFbvEED1Ev
	movq	%rbx, %rax
	movq	%rax, %rcx
.LEHB139:
	call	_Unwind_Resume
	nop
.LEHE139:
.L460:
	addq	$56, %rsp
	popq	%rbx
	popq	%rbp
	ret
	.seh_handler	__gxx_personality_seh0, @unwind, @except
	.seh_handlerdata
.LLSDA4213:
	.byte	0xff
	.byte	0xff
	.byte	0x1
	.uleb128 .LLSDACSE4213-.LLSDACSB4213
.LLSDACSB4213:
	.uleb128 .LEHB138-.LFB4213
	.uleb128 .LEHE138-.LEHB138
	.uleb128 .L459-.LFB4213
	.uleb128 0
	.uleb128 .LEHB139-.LFB4213
	.uleb128 .LEHE139-.LEHB139
	.uleb128 0
	.uleb128 0
.LLSDACSE4213:
	.text
	.seh_endproc
	.def	_ZNSt4pairISt8functionIFbvEENSt7__cxx1112basic_stringIcSt11char_traitsIcESaIcEEEEC1IZ4mainEUlvE68_RA24_KcLb1EEEOT_OT0_;	.scl	3;	.type	32;	.endef
	.set	_ZNSt4pairISt8functionIFbvEENSt7__cxx1112basic_stringIcSt11char_traitsIcESaIcEEEEC1IZ4mainEUlvE68_RA24_KcLb1EEEOT_OT0_,_ZNSt4pairISt8functionIFbvEENSt7__cxx1112basic_stringIcSt11char_traitsIcESaIcEEEEC2IZ4mainEUlvE68_RA24_KcLb1EEEOT_OT0_
	.align 2
	.def	_ZNSt4pairISt8functionIFbvEENSt7__cxx1112basic_stringIcSt11char_traitsIcESaIcEEEEC2IZ4mainEUlvE69_RA24_KcLb1EEEOT_OT0_;	.scl	3;	.type	32;	.endef
	.seh_proc	_ZNSt4pairISt8functionIFbvEENSt7__cxx1112basic_stringIcSt11char_traitsIcESaIcEEEEC2IZ4mainEUlvE69_RA24_KcLb1EEEOT_OT0_
_ZNSt4pairISt8functionIFbvEENSt7__cxx1112basic_stringIcSt11char_traitsIcESaIcEEEEC2IZ4mainEUlvE69_RA24_KcLb1EEEOT_OT0_:
.LFB4216:
	pushq	%rbp
	.seh_pushreg	%rbp
	pushq	%rbx
	.seh_pushreg	%rbx
	subq	$56, %rsp
	.seh_stackalloc	56
	leaq	48(%rsp), %rbp
	.seh_setframe	%rbp, 48
	.seh_endprologue
	movq	%rcx, 32(%rbp)
	movq	%rdx, 40(%rbp)
	movq	%r8, 48(%rbp)
	movq	32(%rbp), %rbx
	movq	40(%rbp), %rax
	movq	%rax, %rcx
	call	_ZSt7forwardIZ4mainEUlvE69_EOT_RNSt16remove_referenceIS1_E4typeE
	movq	%rax, %rdx
	movq	%rbx, %rcx
	call	_ZNSt8functionIFbvEEC1IZ4mainEUlvE69_vEEOT_
	movq	32(%rbp), %rax
	leaq	32(%rax), %rbx
	leaq	-1(%rbp), %rax
	movq	%rax, %rcx
	call	_ZNSaIcEC1Ev
	movq	48(%rbp), %rax
	movq	%rax, %rcx
	call	_ZSt7forwardIRA24_KcEOT_RNSt16remove_referenceIS3_E4typeE
	leaq	-1(%rbp), %rdx
	movq	%rdx, %r8
	movq	%rax, %rdx
	movq	%rbx, %rcx
.LEHB140:
	call	_ZNSt7__cxx1112basic_stringIcSt11char_traitsIcESaIcEEC1IS3_EEPKcRKS3_
.LEHE140:
	leaq	-1(%rbp), %rax
	movq	%rax, %rcx
	call	_ZNSaIcED1Ev
	jmp	.L464
.L463:
	movq	%rax, %rbx
	leaq	-1(%rbp), %rax
	movq	%rax, %rcx
	call	_ZNSaIcED1Ev
	movq	32(%rbp), %rax
	movq	%rax, %rcx
	call	_ZNSt8functionIFbvEED1Ev
	movq	%rbx, %rax
	movq	%rax, %rcx
.LEHB141:
	call	_Unwind_Resume
	nop
.LEHE141:
.L464:
	addq	$56, %rsp
	popq	%rbx
	popq	%rbp
	ret
	.seh_handler	__gxx_personality_seh0, @unwind, @except
	.seh_handlerdata
.LLSDA4216:
	.byte	0xff
	.byte	0xff
	.byte	0x1
	.uleb128 .LLSDACSE4216-.LLSDACSB4216
.LLSDACSB4216:
	.uleb128 .LEHB140-.LFB4216
	.uleb128 .LEHE140-.LEHB140
	.uleb128 .L463-.LFB4216
	.uleb128 0
	.uleb128 .LEHB141-.LFB4216
	.uleb128 .LEHE141-.LEHB141
	.uleb128 0
	.uleb128 0
.LLSDACSE4216:
	.text
	.seh_endproc
	.def	_ZNSt4pairISt8functionIFbvEENSt7__cxx1112basic_stringIcSt11char_traitsIcESaIcEEEEC1IZ4mainEUlvE69_RA24_KcLb1EEEOT_OT0_;	.scl	3;	.type	32;	.endef
	.set	_ZNSt4pairISt8functionIFbvEENSt7__cxx1112basic_stringIcSt11char_traitsIcESaIcEEEEC1IZ4mainEUlvE69_RA24_KcLb1EEEOT_OT0_,_ZNSt4pairISt8functionIFbvEENSt7__cxx1112basic_stringIcSt11char_traitsIcESaIcEEEEC2IZ4mainEUlvE69_RA24_KcLb1EEEOT_OT0_
	.align 2
	.def	_ZNSt4pairISt8functionIFbvEENSt7__cxx1112basic_stringIcSt11char_traitsIcESaIcEEEEC2IZ4mainEUlvE70_RA26_KcLb1EEEOT_OT0_;	.scl	3;	.type	32;	.endef
	.seh_proc	_ZNSt4pairISt8functionIFbvEENSt7__cxx1112basic_stringIcSt11char_traitsIcESaIcEEEEC2IZ4mainEUlvE70_RA26_KcLb1EEEOT_OT0_
_ZNSt4pairISt8functionIFbvEENSt7__cxx1112basic_stringIcSt11char_traitsIcESaIcEEEEC2IZ4mainEUlvE70_RA26_KcLb1EEEOT_OT0_:
.LFB4219:
	pushq	%rbp
	.seh_pushreg	%rbp
	pushq	%rbx
	.seh_pushreg	%rbx
	subq	$56, %rsp
	.seh_stackalloc	56
	leaq	48(%rsp), %rbp
	.seh_setframe	%rbp, 48
	.seh_endprologue
	movq	%rcx, 32(%rbp)
	movq	%rdx, 40(%rbp)
	movq	%r8, 48(%rbp)
	movq	32(%rbp), %rbx
	movq	40(%rbp), %rax
	movq	%rax, %rcx
	call	_ZSt7forwardIZ4mainEUlvE70_EOT_RNSt16remove_referenceIS1_E4typeE
	movq	%rax, %rdx
	movq	%rbx, %rcx
	call	_ZNSt8functionIFbvEEC1IZ4mainEUlvE70_vEEOT_
	movq	32(%rbp), %rax
	leaq	32(%rax), %rbx
	leaq	-1(%rbp), %rax
	movq	%rax, %rcx
	call	_ZNSaIcEC1Ev
	movq	48(%rbp), %rax
	movq	%rax, %rcx
	call	_ZSt7forwardIRA26_KcEOT_RNSt16remove_referenceIS3_E4typeE
	leaq	-1(%rbp), %rdx
	movq	%rdx, %r8
	movq	%rax, %rdx
	movq	%rbx, %rcx
.LEHB142:
	call	_ZNSt7__cxx1112basic_stringIcSt11char_traitsIcESaIcEEC1IS3_EEPKcRKS3_
.LEHE142:
	leaq	-1(%rbp), %rax
	movq	%rax, %rcx
	call	_ZNSaIcED1Ev
	jmp	.L468
.L467:
	movq	%rax, %rbx
	leaq	-1(%rbp), %rax
	movq	%rax, %rcx
	call	_ZNSaIcED1Ev
	movq	32(%rbp), %rax
	movq	%rax, %rcx
	call	_ZNSt8functionIFbvEED1Ev
	movq	%rbx, %rax
	movq	%rax, %rcx
.LEHB143:
	call	_Unwind_Resume
	nop
.LEHE143:
.L468:
	addq	$56, %rsp
	popq	%rbx
	popq	%rbp
	ret
	.seh_handler	__gxx_personality_seh0, @unwind, @except
	.seh_handlerdata
.LLSDA4219:
	.byte	0xff
	.byte	0xff
	.byte	0x1
	.uleb128 .LLSDACSE4219-.LLSDACSB4219
.LLSDACSB4219:
	.uleb128 .LEHB142-.LFB4219
	.uleb128 .LEHE142-.LEHB142
	.uleb128 .L467-.LFB4219
	.uleb128 0
	.uleb128 .LEHB143-.LFB4219
	.uleb128 .LEHE143-.LEHB143
	.uleb128 0
	.uleb128 0
.LLSDACSE4219:
	.text
	.seh_endproc
	.def	_ZNSt4pairISt8functionIFbvEENSt7__cxx1112basic_stringIcSt11char_traitsIcESaIcEEEEC1IZ4mainEUlvE70_RA26_KcLb1EEEOT_OT0_;	.scl	3;	.type	32;	.endef
	.set	_ZNSt4pairISt8functionIFbvEENSt7__cxx1112basic_stringIcSt11char_traitsIcESaIcEEEEC1IZ4mainEUlvE70_RA26_KcLb1EEEOT_OT0_,_ZNSt4pairISt8functionIFbvEENSt7__cxx1112basic_stringIcSt11char_traitsIcESaIcEEEEC2IZ4mainEUlvE70_RA26_KcLb1EEEOT_OT0_
	.align 2
	.def	_ZNSt4pairISt8functionIFbvEENSt7__cxx1112basic_stringIcSt11char_traitsIcESaIcEEEEC2IZ4mainEUlvE71_RA26_KcLb1EEEOT_OT0_;	.scl	3;	.type	32;	.endef
	.seh_proc	_ZNSt4pairISt8functionIFbvEENSt7__cxx1112basic_stringIcSt11char_traitsIcESaIcEEEEC2IZ4mainEUlvE71_RA26_KcLb1EEEOT_OT0_
_ZNSt4pairISt8functionIFbvEENSt7__cxx1112basic_stringIcSt11char_traitsIcESaIcEEEEC2IZ4mainEUlvE71_RA26_KcLb1EEEOT_OT0_:
.LFB4222:
	pushq	%rbp
	.seh_pushreg	%rbp
	pushq	%rbx
	.seh_pushreg	%rbx
	subq	$56, %rsp
	.seh_stackalloc	56
	leaq	48(%rsp), %rbp
	.seh_setframe	%rbp, 48
	.seh_endprologue
	movq	%rcx, 32(%rbp)
	movq	%rdx, 40(%rbp)
	movq	%r8, 48(%rbp)
	movq	32(%rbp), %rbx
	movq	40(%rbp), %rax
	movq	%rax, %rcx
	call	_ZSt7forwardIZ4mainEUlvE71_EOT_RNSt16remove_referenceIS1_E4typeE
	movq	%rax, %rdx
	movq	%rbx, %rcx
	call	_ZNSt8functionIFbvEEC1IZ4mainEUlvE71_vEEOT_
	movq	32(%rbp), %rax
	leaq	32(%rax), %rbx
	leaq	-1(%rbp), %rax
	movq	%rax, %rcx
	call	_ZNSaIcEC1Ev
	movq	48(%rbp), %rax
	movq	%rax, %rcx
	call	_ZSt7forwardIRA26_KcEOT_RNSt16remove_referenceIS3_E4typeE
	leaq	-1(%rbp), %rdx
	movq	%rdx, %r8
	movq	%rax, %rdx
	movq	%rbx, %rcx
.LEHB144:
	call	_ZNSt7__cxx1112basic_stringIcSt11char_traitsIcESaIcEEC1IS3_EEPKcRKS3_
.LEHE144:
	leaq	-1(%rbp), %rax
	movq	%rax, %rcx
	call	_ZNSaIcED1Ev
	jmp	.L472
.L471:
	movq	%rax, %rbx
	leaq	-1(%rbp), %rax
	movq	%rax, %rcx
	call	_ZNSaIcED1Ev
	movq	32(%rbp), %rax
	movq	%rax, %rcx
	call	_ZNSt8functionIFbvEED1Ev
	movq	%rbx, %rax
	movq	%rax, %rcx
.LEHB145:
	call	_Unwind_Resume
	nop
.LEHE145:
.L472:
	addq	$56, %rsp
	popq	%rbx
	popq	%rbp
	ret
	.seh_handler	__gxx_personality_seh0, @unwind, @except
	.seh_handlerdata
.LLSDA4222:
	.byte	0xff
	.byte	0xff
	.byte	0x1
	.uleb128 .LLSDACSE4222-.LLSDACSB4222
.LLSDACSB4222:
	.uleb128 .LEHB144-.LFB4222
	.uleb128 .LEHE144-.LEHB144
	.uleb128 .L471-.LFB4222
	.uleb128 0
	.uleb128 .LEHB145-.LFB4222
	.uleb128 .LEHE145-.LEHB145
	.uleb128 0
	.uleb128 0
.LLSDACSE4222:
	.text
	.seh_endproc
	.def	_ZNSt4pairISt8functionIFbvEENSt7__cxx1112basic_stringIcSt11char_traitsIcESaIcEEEEC1IZ4mainEUlvE71_RA26_KcLb1EEEOT_OT0_;	.scl	3;	.type	32;	.endef
	.set	_ZNSt4pairISt8functionIFbvEENSt7__cxx1112basic_stringIcSt11char_traitsIcESaIcEEEEC1IZ4mainEUlvE71_RA26_KcLb1EEEOT_OT0_,_ZNSt4pairISt8functionIFbvEENSt7__cxx1112basic_stringIcSt11char_traitsIcESaIcEEEEC2IZ4mainEUlvE71_RA26_KcLb1EEEOT_OT0_
	.align 2
	.def	_ZNSt4pairISt8functionIFbvEENSt7__cxx1112basic_stringIcSt11char_traitsIcESaIcEEEEC2IZ4mainEUlvE72_RA29_KcLb1EEEOT_OT0_;	.scl	3;	.type	32;	.endef
	.seh_proc	_ZNSt4pairISt8functionIFbvEENSt7__cxx1112basic_stringIcSt11char_traitsIcESaIcEEEEC2IZ4mainEUlvE72_RA29_KcLb1EEEOT_OT0_
_ZNSt4pairISt8functionIFbvEENSt7__cxx1112basic_stringIcSt11char_traitsIcESaIcEEEEC2IZ4mainEUlvE72_RA29_KcLb1EEEOT_OT0_:
.LFB4225:
	pushq	%rbp
	.seh_pushreg	%rbp
	pushq	%rbx
	.seh_pushreg	%rbx
	subq	$56, %rsp
	.seh_stackalloc	56
	leaq	48(%rsp), %rbp
	.seh_setframe	%rbp, 48
	.seh_endprologue
	movq	%rcx, 32(%rbp)
	movq	%rdx, 40(%rbp)
	movq	%r8, 48(%rbp)
	movq	32(%rbp), %rbx
	movq	40(%rbp), %rax
	movq	%rax, %rcx
	call	_ZSt7forwardIZ4mainEUlvE72_EOT_RNSt16remove_referenceIS1_E4typeE
	movq	%rax, %rdx
	movq	%rbx, %rcx
	call	_ZNSt8functionIFbvEEC1IZ4mainEUlvE72_vEEOT_
	movq	32(%rbp), %rax
	leaq	32(%rax), %rbx
	leaq	-1(%rbp), %rax
	movq	%rax, %rcx
	call	_ZNSaIcEC1Ev
	movq	48(%rbp), %rax
	movq	%rax, %rcx
	call	_ZSt7forwardIRA29_KcEOT_RNSt16remove_referenceIS3_E4typeE
	leaq	-1(%rbp), %rdx
	movq	%rdx, %r8
	movq	%rax, %rdx
	movq	%rbx, %rcx
.LEHB146:
	call	_ZNSt7__cxx1112basic_stringIcSt11char_traitsIcESaIcEEC1IS3_EEPKcRKS3_
.LEHE146:
	leaq	-1(%rbp), %rax
	movq	%rax, %rcx
	call	_ZNSaIcED1Ev
	jmp	.L476
.L475:
	movq	%rax, %rbx
	leaq	-1(%rbp), %rax
	movq	%rax, %rcx
	call	_ZNSaIcED1Ev
	movq	32(%rbp), %rax
	movq	%rax, %rcx
	call	_ZNSt8functionIFbvEED1Ev
	movq	%rbx, %rax
	movq	%rax, %rcx
.LEHB147:
	call	_Unwind_Resume
	nop
.LEHE147:
.L476:
	addq	$56, %rsp
	popq	%rbx
	popq	%rbp
	ret
	.seh_handler	__gxx_personality_seh0, @unwind, @except
	.seh_handlerdata
.LLSDA4225:
	.byte	0xff
	.byte	0xff
	.byte	0x1
	.uleb128 .LLSDACSE4225-.LLSDACSB4225
.LLSDACSB4225:
	.uleb128 .LEHB146-.LFB4225
	.uleb128 .LEHE146-.LEHB146
	.uleb128 .L475-.LFB4225
	.uleb128 0
	.uleb128 .LEHB147-.LFB4225
	.uleb128 .LEHE147-.LEHB147
	.uleb128 0
	.uleb128 0
.LLSDACSE4225:
	.text
	.seh_endproc
	.def	_ZNSt4pairISt8functionIFbvEENSt7__cxx1112basic_stringIcSt11char_traitsIcESaIcEEEEC1IZ4mainEUlvE72_RA29_KcLb1EEEOT_OT0_;	.scl	3;	.type	32;	.endef
	.set	_ZNSt4pairISt8functionIFbvEENSt7__cxx1112basic_stringIcSt11char_traitsIcESaIcEEEEC1IZ4mainEUlvE72_RA29_KcLb1EEEOT_OT0_,_ZNSt4pairISt8functionIFbvEENSt7__cxx1112basic_stringIcSt11char_traitsIcESaIcEEEEC2IZ4mainEUlvE72_RA29_KcLb1EEEOT_OT0_
	.align 2
	.def	_ZNSt4pairISt8functionIFbvEENSt7__cxx1112basic_stringIcSt11char_traitsIcESaIcEEEEC2IZ4mainEUlvE73_RA25_KcLb1EEEOT_OT0_;	.scl	3;	.type	32;	.endef
	.seh_proc	_ZNSt4pairISt8functionIFbvEENSt7__cxx1112basic_stringIcSt11char_traitsIcESaIcEEEEC2IZ4mainEUlvE73_RA25_KcLb1EEEOT_OT0_
_ZNSt4pairISt8functionIFbvEENSt7__cxx1112basic_stringIcSt11char_traitsIcESaIcEEEEC2IZ4mainEUlvE73_RA25_KcLb1EEEOT_OT0_:
.LFB4228:
	pushq	%rbp
	.seh_pushreg	%rbp
	pushq	%rbx
	.seh_pushreg	%rbx
	subq	$56, %rsp
	.seh_stackalloc	56
	leaq	48(%rsp), %rbp
	.seh_setframe	%rbp, 48
	.seh_endprologue
	movq	%rcx, 32(%rbp)
	movq	%rdx, 40(%rbp)
	movq	%r8, 48(%rbp)
	movq	32(%rbp), %rbx
	movq	40(%rbp), %rax
	movq	%rax, %rcx
	call	_ZSt7forwardIZ4mainEUlvE73_EOT_RNSt16remove_referenceIS1_E4typeE
	movq	%rax, %rdx
	movq	%rbx, %rcx
	call	_ZNSt8functionIFbvEEC1IZ4mainEUlvE73_vEEOT_
	movq	32(%rbp), %rax
	leaq	32(%rax), %rbx
	leaq	-1(%rbp), %rax
	movq	%rax, %rcx
	call	_ZNSaIcEC1Ev
	movq	48(%rbp), %rax
	movq	%rax, %rcx
	call	_ZSt7forwardIRA25_KcEOT_RNSt16remove_referenceIS3_E4typeE
	leaq	-1(%rbp), %rdx
	movq	%rdx, %r8
	movq	%rax, %rdx
	movq	%rbx, %rcx
.LEHB148:
	call	_ZNSt7__cxx1112basic_stringIcSt11char_traitsIcESaIcEEC1IS3_EEPKcRKS3_
.LEHE148:
	leaq	-1(%rbp), %rax
	movq	%rax, %rcx
	call	_ZNSaIcED1Ev
	jmp	.L480
.L479:
	movq	%rax, %rbx
	leaq	-1(%rbp), %rax
	movq	%rax, %rcx
	call	_ZNSaIcED1Ev
	movq	32(%rbp), %rax
	movq	%rax, %rcx
	call	_ZNSt8functionIFbvEED1Ev
	movq	%rbx, %rax
	movq	%rax, %rcx
.LEHB149:
	call	_Unwind_Resume
	nop
.LEHE149:
.L480:
	addq	$56, %rsp
	popq	%rbx
	popq	%rbp
	ret
	.seh_handler	__gxx_personality_seh0, @unwind, @except
	.seh_handlerdata
.LLSDA4228:
	.byte	0xff
	.byte	0xff
	.byte	0x1
	.uleb128 .LLSDACSE4228-.LLSDACSB4228
.LLSDACSB4228:
	.uleb128 .LEHB148-.LFB4228
	.uleb128 .LEHE148-.LEHB148
	.uleb128 .L479-.LFB4228
	.uleb128 0
	.uleb128 .LEHB149-.LFB4228
	.uleb128 .LEHE149-.LEHB149
	.uleb128 0
	.uleb128 0
.LLSDACSE4228:
	.text
	.seh_endproc
	.def	_ZNSt4pairISt8functionIFbvEENSt7__cxx1112basic_stringIcSt11char_traitsIcESaIcEEEEC1IZ4mainEUlvE73_RA25_KcLb1EEEOT_OT0_;	.scl	3;	.type	32;	.endef
	.set	_ZNSt4pairISt8functionIFbvEENSt7__cxx1112basic_stringIcSt11char_traitsIcESaIcEEEEC1IZ4mainEUlvE73_RA25_KcLb1EEEOT_OT0_,_ZNSt4pairISt8functionIFbvEENSt7__cxx1112basic_stringIcSt11char_traitsIcESaIcEEEEC2IZ4mainEUlvE73_RA25_KcLb1EEEOT_OT0_
	.align 2
	.def	_ZNSt4pairISt8functionIFbvEENSt7__cxx1112basic_stringIcSt11char_traitsIcESaIcEEEEC2IZ4mainEUlvE74_RA18_KcLb1EEEOT_OT0_;	.scl	3;	.type	32;	.endef
	.seh_proc	_ZNSt4pairISt8functionIFbvEENSt7__cxx1112basic_stringIcSt11char_traitsIcESaIcEEEEC2IZ4mainEUlvE74_RA18_KcLb1EEEOT_OT0_
_ZNSt4pairISt8functionIFbvEENSt7__cxx1112basic_stringIcSt11char_traitsIcESaIcEEEEC2IZ4mainEUlvE74_RA18_KcLb1EEEOT_OT0_:
.LFB4231:
	pushq	%rbp
	.seh_pushreg	%rbp
	pushq	%rbx
	.seh_pushreg	%rbx
	subq	$56, %rsp
	.seh_stackalloc	56
	leaq	48(%rsp), %rbp
	.seh_setframe	%rbp, 48
	.seh_endprologue
	movq	%rcx, 32(%rbp)
	movq	%rdx, 40(%rbp)
	movq	%r8, 48(%rbp)
	movq	32(%rbp), %rbx
	movq	40(%rbp), %rax
	movq	%rax, %rcx
	call	_ZSt7forwardIZ4mainEUlvE74_EOT_RNSt16remove_referenceIS1_E4typeE
	movq	%rax, %rdx
	movq	%rbx, %rcx
	call	_ZNSt8functionIFbvEEC1IZ4mainEUlvE74_vEEOT_
	movq	32(%rbp), %rax
	leaq	32(%rax), %rbx
	leaq	-1(%rbp), %rax
	movq	%rax, %rcx
	call	_ZNSaIcEC1Ev
	movq	48(%rbp), %rax
	movq	%rax, %rcx
	call	_ZSt7forwardIRA18_KcEOT_RNSt16remove_referenceIS3_E4typeE
	leaq	-1(%rbp), %rdx
	movq	%rdx, %r8
	movq	%rax, %rdx
	movq	%rbx, %rcx
.LEHB150:
	call	_ZNSt7__cxx1112basic_stringIcSt11char_traitsIcESaIcEEC1IS3_EEPKcRKS3_
.LEHE150:
	leaq	-1(%rbp), %rax
	movq	%rax, %rcx
	call	_ZNSaIcED1Ev
	jmp	.L484
.L483:
	movq	%rax, %rbx
	leaq	-1(%rbp), %rax
	movq	%rax, %rcx
	call	_ZNSaIcED1Ev
	movq	32(%rbp), %rax
	movq	%rax, %rcx
	call	_ZNSt8functionIFbvEED1Ev
	movq	%rbx, %rax
	movq	%rax, %rcx
.LEHB151:
	call	_Unwind_Resume
	nop
.LEHE151:
.L484:
	addq	$56, %rsp
	popq	%rbx
	popq	%rbp
	ret
	.seh_handler	__gxx_personality_seh0, @unwind, @except
	.seh_handlerdata
.LLSDA4231:
	.byte	0xff
	.byte	0xff
	.byte	0x1
	.uleb128 .LLSDACSE4231-.LLSDACSB4231
.LLSDACSB4231:
	.uleb128 .LEHB150-.LFB4231
	.uleb128 .LEHE150-.LEHB150
	.uleb128 .L483-.LFB4231
	.uleb128 0
	.uleb128 .LEHB151-.LFB4231
	.uleb128 .LEHE151-.LEHB151
	.uleb128 0
	.uleb128 0
.LLSDACSE4231:
	.text
	.seh_endproc
	.def	_ZNSt4pairISt8functionIFbvEENSt7__cxx1112basic_stringIcSt11char_traitsIcESaIcEEEEC1IZ4mainEUlvE74_RA18_KcLb1EEEOT_OT0_;	.scl	3;	.type	32;	.endef
	.set	_ZNSt4pairISt8functionIFbvEENSt7__cxx1112basic_stringIcSt11char_traitsIcESaIcEEEEC1IZ4mainEUlvE74_RA18_KcLb1EEEOT_OT0_,_ZNSt4pairISt8functionIFbvEENSt7__cxx1112basic_stringIcSt11char_traitsIcESaIcEEEEC2IZ4mainEUlvE74_RA18_KcLb1EEEOT_OT0_
	.align 2
	.def	_ZNSt4pairISt8functionIFbvEENSt7__cxx1112basic_stringIcSt11char_traitsIcESaIcEEEEC2IZ4mainEUlvE75_RA24_KcLb1EEEOT_OT0_;	.scl	3;	.type	32;	.endef
	.seh_proc	_ZNSt4pairISt8functionIFbvEENSt7__cxx1112basic_stringIcSt11char_traitsIcESaIcEEEEC2IZ4mainEUlvE75_RA24_KcLb1EEEOT_OT0_
_ZNSt4pairISt8functionIFbvEENSt7__cxx1112basic_stringIcSt11char_traitsIcESaIcEEEEC2IZ4mainEUlvE75_RA24_KcLb1EEEOT_OT0_:
.LFB4234:
	pushq	%rbp
	.seh_pushreg	%rbp
	pushq	%rbx
	.seh_pushreg	%rbx
	subq	$56, %rsp
	.seh_stackalloc	56
	leaq	48(%rsp), %rbp
	.seh_setframe	%rbp, 48
	.seh_endprologue
	movq	%rcx, 32(%rbp)
	movq	%rdx, 40(%rbp)
	movq	%r8, 48(%rbp)
	movq	32(%rbp), %rbx
	movq	40(%rbp), %rax
	movq	%rax, %rcx
	call	_ZSt7forwardIZ4mainEUlvE75_EOT_RNSt16remove_referenceIS1_E4typeE
	movq	%rax, %rdx
	movq	%rbx, %rcx
	call	_ZNSt8functionIFbvEEC1IZ4mainEUlvE75_vEEOT_
	movq	32(%rbp), %rax
	leaq	32(%rax), %rbx
	leaq	-1(%rbp), %rax
	movq	%rax, %rcx
	call	_ZNSaIcEC1Ev
	movq	48(%rbp), %rax
	movq	%rax, %rcx
	call	_ZSt7forwardIRA24_KcEOT_RNSt16remove_referenceIS3_E4typeE
	leaq	-1(%rbp), %rdx
	movq	%rdx, %r8
	movq	%rax, %rdx
	movq	%rbx, %rcx
.LEHB152:
	call	_ZNSt7__cxx1112basic_stringIcSt11char_traitsIcESaIcEEC1IS3_EEPKcRKS3_
.LEHE152:
	leaq	-1(%rbp), %rax
	movq	%rax, %rcx
	call	_ZNSaIcED1Ev
	jmp	.L488
.L487:
	movq	%rax, %rbx
	leaq	-1(%rbp), %rax
	movq	%rax, %rcx
	call	_ZNSaIcED1Ev
	movq	32(%rbp), %rax
	movq	%rax, %rcx
	call	_ZNSt8functionIFbvEED1Ev
	movq	%rbx, %rax
	movq	%rax, %rcx
.LEHB153:
	call	_Unwind_Resume
	nop
.LEHE153:
.L488:
	addq	$56, %rsp
	popq	%rbx
	popq	%rbp
	ret
	.seh_handler	__gxx_personality_seh0, @unwind, @except
	.seh_handlerdata
.LLSDA4234:
	.byte	0xff
	.byte	0xff
	.byte	0x1
	.uleb128 .LLSDACSE4234-.LLSDACSB4234
.LLSDACSB4234:
	.uleb128 .LEHB152-.LFB4234
	.uleb128 .LEHE152-.LEHB152
	.uleb128 .L487-.LFB4234
	.uleb128 0
	.uleb128 .LEHB153-.LFB4234
	.uleb128 .LEHE153-.LEHB153
	.uleb128 0
	.uleb128 0
.LLSDACSE4234:
	.text
	.seh_endproc
	.def	_ZNSt4pairISt8functionIFbvEENSt7__cxx1112basic_stringIcSt11char_traitsIcESaIcEEEEC1IZ4mainEUlvE75_RA24_KcLb1EEEOT_OT0_;	.scl	3;	.type	32;	.endef
	.set	_ZNSt4pairISt8functionIFbvEENSt7__cxx1112basic_stringIcSt11char_traitsIcESaIcEEEEC1IZ4mainEUlvE75_RA24_KcLb1EEEOT_OT0_,_ZNSt4pairISt8functionIFbvEENSt7__cxx1112basic_stringIcSt11char_traitsIcESaIcEEEEC2IZ4mainEUlvE75_RA24_KcLb1EEEOT_OT0_
	.align 2
	.def	_ZNSt4pairISt8functionIFbvEENSt7__cxx1112basic_stringIcSt11char_traitsIcESaIcEEEEC2IZ4mainEUlvE76_RA24_KcLb1EEEOT_OT0_;	.scl	3;	.type	32;	.endef
	.seh_proc	_ZNSt4pairISt8functionIFbvEENSt7__cxx1112basic_stringIcSt11char_traitsIcESaIcEEEEC2IZ4mainEUlvE76_RA24_KcLb1EEEOT_OT0_
_ZNSt4pairISt8functionIFbvEENSt7__cxx1112basic_stringIcSt11char_traitsIcESaIcEEEEC2IZ4mainEUlvE76_RA24_KcLb1EEEOT_OT0_:
.LFB4237:
	pushq	%rbp
	.seh_pushreg	%rbp
	pushq	%rbx
	.seh_pushreg	%rbx
	subq	$56, %rsp
	.seh_stackalloc	56
	leaq	48(%rsp), %rbp
	.seh_setframe	%rbp, 48
	.seh_endprologue
	movq	%rcx, 32(%rbp)
	movq	%rdx, 40(%rbp)
	movq	%r8, 48(%rbp)
	movq	32(%rbp), %rbx
	movq	40(%rbp), %rax
	movq	%rax, %rcx
	call	_ZSt7forwardIZ4mainEUlvE76_EOT_RNSt16remove_referenceIS1_E4typeE
	movq	%rax, %rdx
	movq	%rbx, %rcx
	call	_ZNSt8functionIFbvEEC1IZ4mainEUlvE76_vEEOT_
	movq	32(%rbp), %rax
	leaq	32(%rax), %rbx
	leaq	-1(%rbp), %rax
	movq	%rax, %rcx
	call	_ZNSaIcEC1Ev
	movq	48(%rbp), %rax
	movq	%rax, %rcx
	call	_ZSt7forwardIRA24_KcEOT_RNSt16remove_referenceIS3_E4typeE
	leaq	-1(%rbp), %rdx
	movq	%rdx, %r8
	movq	%rax, %rdx
	movq	%rbx, %rcx
.LEHB154:
	call	_ZNSt7__cxx1112basic_stringIcSt11char_traitsIcESaIcEEC1IS3_EEPKcRKS3_
.LEHE154:
	leaq	-1(%rbp), %rax
	movq	%rax, %rcx
	call	_ZNSaIcED1Ev
	jmp	.L492
.L491:
	movq	%rax, %rbx
	leaq	-1(%rbp), %rax
	movq	%rax, %rcx
	call	_ZNSaIcED1Ev
	movq	32(%rbp), %rax
	movq	%rax, %rcx
	call	_ZNSt8functionIFbvEED1Ev
	movq	%rbx, %rax
	movq	%rax, %rcx
.LEHB155:
	call	_Unwind_Resume
	nop
.LEHE155:
.L492:
	addq	$56, %rsp
	popq	%rbx
	popq	%rbp
	ret
	.seh_handler	__gxx_personality_seh0, @unwind, @except
	.seh_handlerdata
.LLSDA4237:
	.byte	0xff
	.byte	0xff
	.byte	0x1
	.uleb128 .LLSDACSE4237-.LLSDACSB4237
.LLSDACSB4237:
	.uleb128 .LEHB154-.LFB4237
	.uleb128 .LEHE154-.LEHB154
	.uleb128 .L491-.LFB4237
	.uleb128 0
	.uleb128 .LEHB155-.LFB4237
	.uleb128 .LEHE155-.LEHB155
	.uleb128 0
	.uleb128 0
.LLSDACSE4237:
	.text
	.seh_endproc
	.def	_ZNSt4pairISt8functionIFbvEENSt7__cxx1112basic_stringIcSt11char_traitsIcESaIcEEEEC1IZ4mainEUlvE76_RA24_KcLb1EEEOT_OT0_;	.scl	3;	.type	32;	.endef
	.set	_ZNSt4pairISt8functionIFbvEENSt7__cxx1112basic_stringIcSt11char_traitsIcESaIcEEEEC1IZ4mainEUlvE76_RA24_KcLb1EEEOT_OT0_,_ZNSt4pairISt8functionIFbvEENSt7__cxx1112basic_stringIcSt11char_traitsIcESaIcEEEEC2IZ4mainEUlvE76_RA24_KcLb1EEEOT_OT0_
	.align 2
	.def	_ZNSt4pairISt8functionIFbvEENSt7__cxx1112basic_stringIcSt11char_traitsIcESaIcEEEEC2IZ4mainEUlvE77_RA26_KcLb1EEEOT_OT0_;	.scl	3;	.type	32;	.endef
	.seh_proc	_ZNSt4pairISt8functionIFbvEENSt7__cxx1112basic_stringIcSt11char_traitsIcESaIcEEEEC2IZ4mainEUlvE77_RA26_KcLb1EEEOT_OT0_
_ZNSt4pairISt8functionIFbvEENSt7__cxx1112basic_stringIcSt11char_traitsIcESaIcEEEEC2IZ4mainEUlvE77_RA26_KcLb1EEEOT_OT0_:
.LFB4240:
	pushq	%rbp
	.seh_pushreg	%rbp
	pushq	%rbx
	.seh_pushreg	%rbx
	subq	$56, %rsp
	.seh_stackalloc	56
	leaq	48(%rsp), %rbp
	.seh_setframe	%rbp, 48
	.seh_endprologue
	movq	%rcx, 32(%rbp)
	movq	%rdx, 40(%rbp)
	movq	%r8, 48(%rbp)
	movq	32(%rbp), %rbx
	movq	40(%rbp), %rax
	movq	%rax, %rcx
	call	_ZSt7forwardIZ4mainEUlvE77_EOT_RNSt16remove_referenceIS1_E4typeE
	movq	%rax, %rdx
	movq	%rbx, %rcx
	call	_ZNSt8functionIFbvEEC1IZ4mainEUlvE77_vEEOT_
	movq	32(%rbp), %rax
	leaq	32(%rax), %rbx
	leaq	-1(%rbp), %rax
	movq	%rax, %rcx
	call	_ZNSaIcEC1Ev
	movq	48(%rbp), %rax
	movq	%rax, %rcx
	call	_ZSt7forwardIRA26_KcEOT_RNSt16remove_referenceIS3_E4typeE
	leaq	-1(%rbp), %rdx
	movq	%rdx, %r8
	movq	%rax, %rdx
	movq	%rbx, %rcx
.LEHB156:
	call	_ZNSt7__cxx1112basic_stringIcSt11char_traitsIcESaIcEEC1IS3_EEPKcRKS3_
.LEHE156:
	leaq	-1(%rbp), %rax
	movq	%rax, %rcx
	call	_ZNSaIcED1Ev
	jmp	.L496
.L495:
	movq	%rax, %rbx
	leaq	-1(%rbp), %rax
	movq	%rax, %rcx
	call	_ZNSaIcED1Ev
	movq	32(%rbp), %rax
	movq	%rax, %rcx
	call	_ZNSt8functionIFbvEED1Ev
	movq	%rbx, %rax
	movq	%rax, %rcx
.LEHB157:
	call	_Unwind_Resume
	nop
.LEHE157:
.L496:
	addq	$56, %rsp
	popq	%rbx
	popq	%rbp
	ret
	.seh_handler	__gxx_personality_seh0, @unwind, @except
	.seh_handlerdata
.LLSDA4240:
	.byte	0xff
	.byte	0xff
	.byte	0x1
	.uleb128 .LLSDACSE4240-.LLSDACSB4240
.LLSDACSB4240:
	.uleb128 .LEHB156-.LFB4240
	.uleb128 .LEHE156-.LEHB156
	.uleb128 .L495-.LFB4240
	.uleb128 0
	.uleb128 .LEHB157-.LFB4240
	.uleb128 .LEHE157-.LEHB157
	.uleb128 0
	.uleb128 0
.LLSDACSE4240:
	.text
	.seh_endproc
	.def	_ZNSt4pairISt8functionIFbvEENSt7__cxx1112basic_stringIcSt11char_traitsIcESaIcEEEEC1IZ4mainEUlvE77_RA26_KcLb1EEEOT_OT0_;	.scl	3;	.type	32;	.endef
	.set	_ZNSt4pairISt8functionIFbvEENSt7__cxx1112basic_stringIcSt11char_traitsIcESaIcEEEEC1IZ4mainEUlvE77_RA26_KcLb1EEEOT_OT0_,_ZNSt4pairISt8functionIFbvEENSt7__cxx1112basic_stringIcSt11char_traitsIcESaIcEEEEC2IZ4mainEUlvE77_RA26_KcLb1EEEOT_OT0_
	.def	__main;	.scl	2;	.type	32;	.endef
	.section .rdata,"dr"
.LC0:
	.ascii "AMD CPU\0"
.LC1:
	.ascii "Intel CPU\0"
.LC2:
	.ascii "Intel Atom CPU\0"
.LC3:
	.ascii "Intel Silvermont CPU\0"
.LC4:
	.ascii "Intel Core 2 CPU\0"
.LC5:
	.ascii "Intel Core i7 CPU\0"
.LC6:
	.ascii "Intel Core i7 Nehalem CPU\0"
.LC7:
	.ascii "Intel Core i7 Westmere CPU\0"
	.align 8
.LC8:
	.ascii "Intel Core i7 Sandy Bridge CPU\0"
.LC9:
	.ascii "Intel Core i7 Ivy Bridge CPU\0"
.LC10:
	.ascii "Intel Core i7 Haswell CPU\0"
.LC11:
	.ascii "Intel Core i7 Broadwell CPU\0"
.LC12:
	.ascii "Intel Core i7 Skylake CPU\0"
	.align 8
.LC13:
	.ascii "Intel Core i7 Skylake AVX512 CPU\0"
.LC14:
	.ascii "Intel Core i7 Cannon Lake CPU\0"
	.align 8
.LC15:
	.ascii "Intel Core i7 Ice Lake Client CPU\0"
	.align 8
.LC16:
	.ascii "Intel Core i7 Ice Lake Server CPU\0"
.LC17:
	.ascii "Intel Core i7 Cascadelake CPU\0"
.LC18:
	.ascii "Intel Core i7 Tigerlake CPU\0"
.LC19:
	.ascii "Intel Core i7 Cooperlake CPU\0"
.LC20:
	.ascii "Intel Atom Bonnell CPU\0"
.LC21:
	.ascii "Intel Atom Silvermont CPU\0"
.LC22:
	.ascii "Intel Atom Goldmont CPU\0"
.LC23:
	.ascii "Intel Atom Goldmont Plus CPU\0"
.LC24:
	.ascii "Intel Atom Tremont CPU\0"
.LC25:
	.ascii "Intel Knights Landing CPU\0"
.LC26:
	.ascii "Intel Knights Mill CPU\0"
.LC27:
	.ascii "AMD Family 10h CPU\0"
.LC28:
	.ascii "AMD Family 10h Barcelona CPU\0"
.LC29:
	.ascii "AMD Family 10h Shanghai CPU\0"
.LC30:
	.ascii "AMD Family 10h Istanbul CPU\0"
.LC31:
	.ascii "AMD Family 14h CPU\0"
.LC32:
	.ascii "AMD Family 15h CPU\0"
	.align 8
.LC33:
	.ascii "AMD Family 15h Bulldozer version 1\0"
	.align 8
.LC34:
	.ascii "AMD Family 15h Bulldozer version 2\0"
	.align 8
.LC35:
	.ascii "AMD Family 15h Bulldozer version 3\0"
	.align 8
.LC36:
	.ascii "AMD Family 15h Bulldozer version 4\0"
.LC37:
	.ascii "AMD Family 16h CPU\0"
.LC38:
	.ascii "AMD Family 17h CPU\0"
.LC39:
	.ascii "AMD Family 17h Zen version 1\0"
.LC40:
	.ascii "AMD Family 17h Zen version 2\0"
.LC41:
	.ascii "AMD Family 19h CPU\0"
.LC42:
	.ascii "AMD Family 19h Zen version 3\0"
.LC43:
	.ascii "CMOV instruction\0"
.LC44:
	.ascii "MMX instructions\0"
.LC45:
	.ascii "POPCNT instruction\0"
.LC46:
	.ascii "SSE instructions\0"
.LC47:
	.ascii "SSE2 instructions\0"
.LC48:
	.ascii "SSE3 instructions\0"
.LC49:
	.ascii "SSSE3 instructions\0"
.LC50:
	.ascii "SSE4.1 instructions\0"
.LC51:
	.ascii "SSE4.2 instructions\0"
.LC52:
	.ascii "AVX instructions\0"
.LC53:
	.ascii "AVX2 instructions\0"
.LC54:
	.ascii "SSE4A instructions\0"
.LC55:
	.ascii "FMA4 instructions\0"
.LC56:
	.ascii "XOP instructions\0"
.LC57:
	.ascii "FMA instructions\0"
.LC58:
	.ascii "AVX512F instructions\0"
.LC59:
	.ascii "BMI instructions\0"
.LC60:
	.ascii "BMI2 instructions\0"
.LC61:
	.ascii "AES instructions\0"
.LC62:
	.ascii "PCLMUL instructions\0"
.LC63:
	.ascii "AVX512VL instructions\0"
.LC64:
	.ascii "AVX512BW instructions\0"
.LC65:
	.ascii "AVX512DQ instructions\0"
.LC66:
	.ascii "AVX512CD instructions\0"
.LC67:
	.ascii "AVX512ER instructions\0"
.LC68:
	.ascii "AVX512PF instructions\0"
.LC69:
	.ascii "AVX512VBMI instructions\0"
.LC70:
	.ascii "AVX512IFMA instructions\0"
.LC71:
	.ascii "AVX5124VNNIW instructions\0"
.LC72:
	.ascii "AVX5124FMAPS instructions\0"
.LC73:
	.ascii "AVX512VPOPCNTDQ instructions\0"
.LC74:
	.ascii "AVX512VBMI2 instructions\0"
.LC75:
	.ascii "GFNI instructions\0"
.LC76:
	.ascii "VPCLMULQDQ instructions\0"
.LC77:
	.ascii "AVX512VNNI instructions\0"
.LC78:
	.ascii "AVX512BITALG instructions\0"
.LC79:
	.ascii "Exception: \0"
.LC80:
	.ascii "Error: exception\0"
	.text
	.globl	main
	.def	main;	.scl	2;	.type	32;	.endef
	.seh_proc	main
main:
.LFB3435:
	pushq	%rbp
	.seh_pushreg	%rbp
	pushq	%r15
	.seh_pushreg	%r15
	pushq	%r14
	.seh_pushreg	%r14
	pushq	%r13
	.seh_pushreg	%r13
	pushq	%r12
	.seh_pushreg	%r12
	pushq	%rdi
	.seh_pushreg	%rdi
	pushq	%rsi
	.seh_pushreg	%rsi
	pushq	%rbx
	.seh_pushreg	%rbx
	movl	$5368, %eax
	call	___chkstk_ms
	subq	%rax, %rsp
	.seh_stackalloc	5368
	leaq	128(%rsp), %rbp
	.seh_setframe	%rbp, 128
	.seh_endprologue
	movl	%ecx, 5312(%rbp)
	movq	%rdx, 5320(%rbp)
	call	__main
	call	__cpu_indicator_init
	leaq	16(%rbp), %rsi
	movl	$42, %ebx
	movq	%rsi, %rcx
	leaq	2772(%rbp), %rax
	leaq	.LC0(%rip), %r8
	movq	%rax, %rdx
.LEHB158:
	call	_ZNSt4pairISt8functionIFbvEENSt7__cxx1112basic_stringIcSt11char_traitsIcESaIcEEEEC1IZ4mainEUlvE_RA8_KcLb1EEEOT_OT0_
	leaq	64(%rsi), %rdi
	subq	$1, %rbx
	leaq	2773(%rbp), %rax
	leaq	.LC1(%rip), %r8
	movq	%rax, %rdx
	movq	%rdi, %rcx
	call	_ZNSt4pairISt8functionIFbvEENSt7__cxx1112basic_stringIcSt11char_traitsIcESaIcEEEEC1IZ4mainEUlvE0_RA10_KcLb1EEEOT_OT0_
	addq	$64, %rdi
	subq	$1, %rbx
	leaq	2774(%rbp), %rax
	leaq	.LC2(%rip), %r8
	movq	%rax, %rdx
	movq	%rdi, %rcx
	call	_ZNSt4pairISt8functionIFbvEENSt7__cxx1112basic_stringIcSt11char_traitsIcESaIcEEEEC1IZ4mainEUlvE1_RA15_KcLb1EEEOT_OT0_
	addq	$64, %rdi
	subq	$1, %rbx
	leaq	2775(%rbp), %rax
	leaq	.LC3(%rip), %r8
	movq	%rax, %rdx
	movq	%rdi, %rcx
	call	_ZNSt4pairISt8functionIFbvEENSt7__cxx1112basic_stringIcSt11char_traitsIcESaIcEEEEC1IZ4mainEUlvE2_RA21_KcLb1EEEOT_OT0_
	addq	$64, %rdi
	subq	$1, %rbx
	leaq	2776(%rbp), %rax
	leaq	.LC4(%rip), %r8
	movq	%rax, %rdx
	movq	%rdi, %rcx
	call	_ZNSt4pairISt8functionIFbvEENSt7__cxx1112basic_stringIcSt11char_traitsIcESaIcEEEEC1IZ4mainEUlvE3_RA17_KcLb1EEEOT_OT0_
	addq	$64, %rdi
	subq	$1, %rbx
	leaq	2777(%rbp), %rax
	leaq	.LC5(%rip), %r8
	movq	%rax, %rdx
	movq	%rdi, %rcx
	call	_ZNSt4pairISt8functionIFbvEENSt7__cxx1112basic_stringIcSt11char_traitsIcESaIcEEEEC1IZ4mainEUlvE4_RA18_KcLb1EEEOT_OT0_
	addq	$64, %rdi
	subq	$1, %rbx
	leaq	2778(%rbp), %rax
	leaq	.LC6(%rip), %r8
	movq	%rax, %rdx
	movq	%rdi, %rcx
	call	_ZNSt4pairISt8functionIFbvEENSt7__cxx1112basic_stringIcSt11char_traitsIcESaIcEEEEC1IZ4mainEUlvE5_RA26_KcLb1EEEOT_OT0_
	addq	$64, %rdi
	subq	$1, %rbx
	leaq	2779(%rbp), %rax
	leaq	.LC7(%rip), %r8
	movq	%rax, %rdx
	movq	%rdi, %rcx
	call	_ZNSt4pairISt8functionIFbvEENSt7__cxx1112basic_stringIcSt11char_traitsIcESaIcEEEEC1IZ4mainEUlvE6_RA27_KcLb1EEEOT_OT0_
	addq	$64, %rdi
	subq	$1, %rbx
	leaq	2780(%rbp), %rax
	leaq	.LC8(%rip), %r8
	movq	%rax, %rdx
	movq	%rdi, %rcx
	call	_ZNSt4pairISt8functionIFbvEENSt7__cxx1112basic_stringIcSt11char_traitsIcESaIcEEEEC1IZ4mainEUlvE7_RA31_KcLb1EEEOT_OT0_
	addq	$64, %rdi
	subq	$1, %rbx
	leaq	2781(%rbp), %rax
	leaq	.LC9(%rip), %r8
	movq	%rax, %rdx
	movq	%rdi, %rcx
	call	_ZNSt4pairISt8functionIFbvEENSt7__cxx1112basic_stringIcSt11char_traitsIcESaIcEEEEC1IZ4mainEUlvE8_RA29_KcLb1EEEOT_OT0_
	addq	$64, %rdi
	subq	$1, %rbx
	leaq	2782(%rbp), %rax
	leaq	.LC10(%rip), %r8
	movq	%rax, %rdx
	movq	%rdi, %rcx
	call	_ZNSt4pairISt8functionIFbvEENSt7__cxx1112basic_stringIcSt11char_traitsIcESaIcEEEEC1IZ4mainEUlvE9_RA26_KcLb1EEEOT_OT0_
	addq	$64, %rdi
	subq	$1, %rbx
	leaq	2783(%rbp), %rax
	leaq	.LC11(%rip), %r8
	movq	%rax, %rdx
	movq	%rdi, %rcx
	call	_ZNSt4pairISt8functionIFbvEENSt7__cxx1112basic_stringIcSt11char_traitsIcESaIcEEEEC1IZ4mainEUlvE10_RA28_KcLb1EEEOT_OT0_
	addq	$64, %rdi
	subq	$1, %rbx
	leaq	2784(%rbp), %rax
	leaq	.LC12(%rip), %r8
	movq	%rax, %rdx
	movq	%rdi, %rcx
	call	_ZNSt4pairISt8functionIFbvEENSt7__cxx1112basic_stringIcSt11char_traitsIcESaIcEEEEC1IZ4mainEUlvE11_RA26_KcLb1EEEOT_OT0_
	addq	$64, %rdi
	subq	$1, %rbx
	leaq	2785(%rbp), %rax
	leaq	.LC13(%rip), %r8
	movq	%rax, %rdx
	movq	%rdi, %rcx
	call	_ZNSt4pairISt8functionIFbvEENSt7__cxx1112basic_stringIcSt11char_traitsIcESaIcEEEEC1IZ4mainEUlvE12_RA33_KcLb1EEEOT_OT0_
	addq	$64, %rdi
	subq	$1, %rbx
	leaq	2786(%rbp), %rax
	leaq	.LC14(%rip), %r8
	movq	%rax, %rdx
	movq	%rdi, %rcx
	call	_ZNSt4pairISt8functionIFbvEENSt7__cxx1112basic_stringIcSt11char_traitsIcESaIcEEEEC1IZ4mainEUlvE13_RA30_KcLb1EEEOT_OT0_
	addq	$64, %rdi
	subq	$1, %rbx
	leaq	2787(%rbp), %rax
	leaq	.LC15(%rip), %r8
	movq	%rax, %rdx
	movq	%rdi, %rcx
	call	_ZNSt4pairISt8functionIFbvEENSt7__cxx1112basic_stringIcSt11char_traitsIcESaIcEEEEC1IZ4mainEUlvE14_RA34_KcLb1EEEOT_OT0_
	addq	$64, %rdi
	subq	$1, %rbx
	leaq	2788(%rbp), %rax
	leaq	.LC16(%rip), %r8
	movq	%rax, %rdx
	movq	%rdi, %rcx
	call	_ZNSt4pairISt8functionIFbvEENSt7__cxx1112basic_stringIcSt11char_traitsIcESaIcEEEEC1IZ4mainEUlvE15_RA34_KcLb1EEEOT_OT0_
	addq	$64, %rdi
	subq	$1, %rbx
	leaq	2789(%rbp), %rax
	leaq	.LC17(%rip), %r8
	movq	%rax, %rdx
	movq	%rdi, %rcx
	call	_ZNSt4pairISt8functionIFbvEENSt7__cxx1112basic_stringIcSt11char_traitsIcESaIcEEEEC1IZ4mainEUlvE16_RA30_KcLb1EEEOT_OT0_
	addq	$64, %rdi
	subq	$1, %rbx
	leaq	2790(%rbp), %rax
	leaq	.LC18(%rip), %r8
	movq	%rax, %rdx
	movq	%rdi, %rcx
	call	_ZNSt4pairISt8functionIFbvEENSt7__cxx1112basic_stringIcSt11char_traitsIcESaIcEEEEC1IZ4mainEUlvE17_RA28_KcLb1EEEOT_OT0_
	addq	$64, %rdi
	subq	$1, %rbx
	leaq	2791(%rbp), %rax
	leaq	.LC19(%rip), %r8
	movq	%rax, %rdx
	movq	%rdi, %rcx
	call	_ZNSt4pairISt8functionIFbvEENSt7__cxx1112basic_stringIcSt11char_traitsIcESaIcEEEEC1IZ4mainEUlvE18_RA29_KcLb1EEEOT_OT0_
	addq	$64, %rdi
	subq	$1, %rbx
	leaq	2792(%rbp), %rax
	leaq	.LC20(%rip), %r8
	movq	%rax, %rdx
	movq	%rdi, %rcx
	call	_ZNSt4pairISt8functionIFbvEENSt7__cxx1112basic_stringIcSt11char_traitsIcESaIcEEEEC1IZ4mainEUlvE19_RA23_KcLb1EEEOT_OT0_
	addq	$64, %rdi
	subq	$1, %rbx
	leaq	2793(%rbp), %rax
	leaq	.LC21(%rip), %r8
	movq	%rax, %rdx
	movq	%rdi, %rcx
	call	_ZNSt4pairISt8functionIFbvEENSt7__cxx1112basic_stringIcSt11char_traitsIcESaIcEEEEC1IZ4mainEUlvE20_RA26_KcLb1EEEOT_OT0_
	addq	$64, %rdi
	subq	$1, %rbx
	leaq	2794(%rbp), %rax
	leaq	.LC22(%rip), %r8
	movq	%rax, %rdx
	movq	%rdi, %rcx
	call	_ZNSt4pairISt8functionIFbvEENSt7__cxx1112basic_stringIcSt11char_traitsIcESaIcEEEEC1IZ4mainEUlvE21_RA24_KcLb1EEEOT_OT0_
	addq	$64, %rdi
	subq	$1, %rbx
	leaq	2795(%rbp), %rax
	leaq	.LC23(%rip), %r8
	movq	%rax, %rdx
	movq	%rdi, %rcx
	call	_ZNSt4pairISt8functionIFbvEENSt7__cxx1112basic_stringIcSt11char_traitsIcESaIcEEEEC1IZ4mainEUlvE22_RA29_KcLb1EEEOT_OT0_
	addq	$64, %rdi
	subq	$1, %rbx
	leaq	2796(%rbp), %rax
	leaq	.LC24(%rip), %r8
	movq	%rax, %rdx
	movq	%rdi, %rcx
	call	_ZNSt4pairISt8functionIFbvEENSt7__cxx1112basic_stringIcSt11char_traitsIcESaIcEEEEC1IZ4mainEUlvE23_RA23_KcLb1EEEOT_OT0_
	addq	$64, %rdi
	subq	$1, %rbx
	leaq	2797(%rbp), %rax
	leaq	.LC25(%rip), %r8
	movq	%rax, %rdx
	movq	%rdi, %rcx
	call	_ZNSt4pairISt8functionIFbvEENSt7__cxx1112basic_stringIcSt11char_traitsIcESaIcEEEEC1IZ4mainEUlvE24_RA26_KcLb1EEEOT_OT0_
	addq	$64, %rdi
	subq	$1, %rbx
	leaq	2798(%rbp), %rax
	leaq	.LC26(%rip), %r8
	movq	%rax, %rdx
	movq	%rdi, %rcx
	call	_ZNSt4pairISt8functionIFbvEENSt7__cxx1112basic_stringIcSt11char_traitsIcESaIcEEEEC1IZ4mainEUlvE25_RA23_KcLb1EEEOT_OT0_
	addq	$64, %rdi
	subq	$1, %rbx
	leaq	2799(%rbp), %rax
	leaq	.LC27(%rip), %r8
	movq	%rax, %rdx
	movq	%rdi, %rcx
	call	_ZNSt4pairISt8functionIFbvEENSt7__cxx1112basic_stringIcSt11char_traitsIcESaIcEEEEC1IZ4mainEUlvE26_RA19_KcLb1EEEOT_OT0_
	addq	$64, %rdi
	subq	$1, %rbx
	leaq	2800(%rbp), %rax
	leaq	.LC28(%rip), %r8
	movq	%rax, %rdx
	movq	%rdi, %rcx
	call	_ZNSt4pairISt8functionIFbvEENSt7__cxx1112basic_stringIcSt11char_traitsIcESaIcEEEEC1IZ4mainEUlvE27_RA29_KcLb1EEEOT_OT0_
	addq	$64, %rdi
	subq	$1, %rbx
	leaq	2801(%rbp), %rax
	leaq	.LC29(%rip), %r8
	movq	%rax, %rdx
	movq	%rdi, %rcx
	call	_ZNSt4pairISt8functionIFbvEENSt7__cxx1112basic_stringIcSt11char_traitsIcESaIcEEEEC1IZ4mainEUlvE28_RA28_KcLb1EEEOT_OT0_
	addq	$64, %rdi
	subq	$1, %rbx
	leaq	2802(%rbp), %rax
	leaq	.LC30(%rip), %r8
	movq	%rax, %rdx
	movq	%rdi, %rcx
	call	_ZNSt4pairISt8functionIFbvEENSt7__cxx1112basic_stringIcSt11char_traitsIcESaIcEEEEC1IZ4mainEUlvE29_RA28_KcLb1EEEOT_OT0_
	addq	$64, %rdi
	subq	$1, %rbx
	leaq	2803(%rbp), %rax
	leaq	.LC31(%rip), %r8
	movq	%rax, %rdx
	movq	%rdi, %rcx
	call	_ZNSt4pairISt8functionIFbvEENSt7__cxx1112basic_stringIcSt11char_traitsIcESaIcEEEEC1IZ4mainEUlvE30_RA19_KcLb1EEEOT_OT0_
	addq	$64, %rdi
	subq	$1, %rbx
	leaq	2804(%rbp), %rax
	leaq	.LC32(%rip), %r8
	movq	%rax, %rdx
	movq	%rdi, %rcx
	call	_ZNSt4pairISt8functionIFbvEENSt7__cxx1112basic_stringIcSt11char_traitsIcESaIcEEEEC1IZ4mainEUlvE31_RA19_KcLb1EEEOT_OT0_
	addq	$64, %rdi
	subq	$1, %rbx
	leaq	2805(%rbp), %rax
	leaq	.LC33(%rip), %r8
	movq	%rax, %rdx
	movq	%rdi, %rcx
	call	_ZNSt4pairISt8functionIFbvEENSt7__cxx1112basic_stringIcSt11char_traitsIcESaIcEEEEC1IZ4mainEUlvE32_RA35_KcLb1EEEOT_OT0_
	addq	$64, %rdi
	subq	$1, %rbx
	leaq	2806(%rbp), %rax
	leaq	.LC34(%rip), %r8
	movq	%rax, %rdx
	movq	%rdi, %rcx
	call	_ZNSt4pairISt8functionIFbvEENSt7__cxx1112basic_stringIcSt11char_traitsIcESaIcEEEEC1IZ4mainEUlvE33_RA35_KcLb1EEEOT_OT0_
	addq	$64, %rdi
	subq	$1, %rbx
	leaq	2807(%rbp), %rax
	leaq	.LC35(%rip), %r8
	movq	%rax, %rdx
	movq	%rdi, %rcx
	call	_ZNSt4pairISt8functionIFbvEENSt7__cxx1112basic_stringIcSt11char_traitsIcESaIcEEEEC1IZ4mainEUlvE34_RA35_KcLb1EEEOT_OT0_
	addq	$64, %rdi
	subq	$1, %rbx
	leaq	2808(%rbp), %rax
	leaq	.LC36(%rip), %r8
	movq	%rax, %rdx
	movq	%rdi, %rcx
	call	_ZNSt4pairISt8functionIFbvEENSt7__cxx1112basic_stringIcSt11char_traitsIcESaIcEEEEC1IZ4mainEUlvE35_RA35_KcLb1EEEOT_OT0_
	addq	$64, %rdi
	subq	$1, %rbx
	leaq	2809(%rbp), %rax
	leaq	.LC37(%rip), %r8
	movq	%rax, %rdx
	movq	%rdi, %rcx
	call	_ZNSt4pairISt8functionIFbvEENSt7__cxx1112basic_stringIcSt11char_traitsIcESaIcEEEEC1IZ4mainEUlvE36_RA19_KcLb1EEEOT_OT0_
	addq	$64, %rdi
	subq	$1, %rbx
	leaq	2810(%rbp), %rax
	leaq	.LC38(%rip), %r8
	movq	%rax, %rdx
	movq	%rdi, %rcx
	call	_ZNSt4pairISt8functionIFbvEENSt7__cxx1112basic_stringIcSt11char_traitsIcESaIcEEEEC1IZ4mainEUlvE37_RA19_KcLb1EEEOT_OT0_
	addq	$64, %rdi
	subq	$1, %rbx
	leaq	2811(%rbp), %rax
	leaq	.LC39(%rip), %r8
	movq	%rax, %rdx
	movq	%rdi, %rcx
	call	_ZNSt4pairISt8functionIFbvEENSt7__cxx1112basic_stringIcSt11char_traitsIcESaIcEEEEC1IZ4mainEUlvE38_RA29_KcLb1EEEOT_OT0_
	addq	$64, %rdi
	subq	$1, %rbx
	leaq	2812(%rbp), %rax
	leaq	.LC40(%rip), %r8
	movq	%rax, %rdx
	movq	%rdi, %rcx
	call	_ZNSt4pairISt8functionIFbvEENSt7__cxx1112basic_stringIcSt11char_traitsIcESaIcEEEEC1IZ4mainEUlvE39_RA29_KcLb1EEEOT_OT0_
	addq	$64, %rdi
	subq	$1, %rbx
	leaq	2813(%rbp), %rax
	leaq	.LC41(%rip), %r8
	movq	%rax, %rdx
	movq	%rdi, %rcx
	call	_ZNSt4pairISt8functionIFbvEENSt7__cxx1112basic_stringIcSt11char_traitsIcESaIcEEEEC1IZ4mainEUlvE40_RA19_KcLb1EEEOT_OT0_
	leaq	64(%rdi), %rcx
	subq	$1, %rbx
	leaq	2814(%rbp), %rax
	leaq	.LC42(%rip), %r8
	movq	%rax, %rdx
	call	_ZNSt4pairISt8functionIFbvEENSt7__cxx1112basic_stringIcSt11char_traitsIcESaIcEEEEC1IZ4mainEUlvE41_RA29_KcLb1EEEOT_OT0_
.LEHE158:
	movl	$42, %ebx
	leaq	16(%rbp), %rax
	movq	%rax, %r14
	movl	$43, %r15d
	leaq	2815(%rbp), %rax
	movq	%rax, %rcx
	call	_ZNSaISt4pairISt8functionIFbvEENSt7__cxx1112basic_stringIcSt11char_traitsIcESaIcEEEEEC1Ev
	movq	%r14, -96(%rbp)
	movq	%r15, -88(%rbp)
	leaq	2815(%rbp), %rcx
	leaq	-96(%rbp), %rdx
	leaq	-16(%rbp), %rax
	movq	%rcx, %r8
	movq	%rax, %rcx
.LEHB159:
	call	_ZNSt7__cxx114listISt4pairISt8functionIFbvEENS_12basic_stringIcSt11char_traitsIcESaIcEEEESaISA_EEC1ESt16initializer_listISA_ERKSB_
.LEHE159:
	leaq	2815(%rbp), %rax
	movq	%rax, %rcx
	call	_ZNSaISt4pairISt8functionIFbvEENSt7__cxx1112basic_stringIcSt11char_traitsIcESaIcEEEEED1Ev
	leaq	16(%rbp), %rbx
	addq	$2752, %rbx
.L499:
	leaq	16(%rbp), %rax
	cmpq	%rax, %rbx
	je	.L498
	subq	$64, %rbx
	movq	%rbx, %rcx
	call	_ZNSt4pairISt8functionIFbvEENSt7__cxx1112basic_stringIcSt11char_traitsIcESaIcEEEED1Ev
	jmp	.L499
.L498:
	leaq	2816(%rbp), %rsi
	movl	$35, %ebx
	movq	%rsi, %rcx
	leaq	5123(%rbp), %rax
	leaq	.LC43(%rip), %r8
	movq	%rax, %rdx
.LEHB160:
	call	_ZNSt4pairISt8functionIFbvEENSt7__cxx1112basic_stringIcSt11char_traitsIcESaIcEEEEC1IZ4mainEUlvE42_RA17_KcLb1EEEOT_OT0_
	leaq	64(%rsi), %rdi
	subq	$1, %rbx
	leaq	5124(%rbp), %rax
	leaq	.LC44(%rip), %r8
	movq	%rax, %rdx
	movq	%rdi, %rcx
	call	_ZNSt4pairISt8functionIFbvEENSt7__cxx1112basic_stringIcSt11char_traitsIcESaIcEEEEC1IZ4mainEUlvE43_RA17_KcLb1EEEOT_OT0_
	addq	$64, %rdi
	subq	$1, %rbx
	leaq	5125(%rbp), %rax
	leaq	.LC45(%rip), %r8
	movq	%rax, %rdx
	movq	%rdi, %rcx
	call	_ZNSt4pairISt8functionIFbvEENSt7__cxx1112basic_stringIcSt11char_traitsIcESaIcEEEEC1IZ4mainEUlvE44_RA19_KcLb1EEEOT_OT0_
	addq	$64, %rdi
	subq	$1, %rbx
	leaq	5126(%rbp), %rax
	leaq	.LC46(%rip), %r8
	movq	%rax, %rdx
	movq	%rdi, %rcx
	call	_ZNSt4pairISt8functionIFbvEENSt7__cxx1112basic_stringIcSt11char_traitsIcESaIcEEEEC1IZ4mainEUlvE45_RA17_KcLb1EEEOT_OT0_
	addq	$64, %rdi
	subq	$1, %rbx
	leaq	5127(%rbp), %rax
	leaq	.LC47(%rip), %r8
	movq	%rax, %rdx
	movq	%rdi, %rcx
	call	_ZNSt4pairISt8functionIFbvEENSt7__cxx1112basic_stringIcSt11char_traitsIcESaIcEEEEC1IZ4mainEUlvE46_RA18_KcLb1EEEOT_OT0_
	addq	$64, %rdi
	subq	$1, %rbx
	leaq	5128(%rbp), %rax
	leaq	.LC48(%rip), %r8
	movq	%rax, %rdx
	movq	%rdi, %rcx
	call	_ZNSt4pairISt8functionIFbvEENSt7__cxx1112basic_stringIcSt11char_traitsIcESaIcEEEEC1IZ4mainEUlvE47_RA18_KcLb1EEEOT_OT0_
	addq	$64, %rdi
	subq	$1, %rbx
	leaq	5129(%rbp), %rax
	leaq	.LC49(%rip), %r8
	movq	%rax, %rdx
	movq	%rdi, %rcx
	call	_ZNSt4pairISt8functionIFbvEENSt7__cxx1112basic_stringIcSt11char_traitsIcESaIcEEEEC1IZ4mainEUlvE48_RA19_KcLb1EEEOT_OT0_
	addq	$64, %rdi
	subq	$1, %rbx
	leaq	5130(%rbp), %rax
	leaq	.LC50(%rip), %r8
	movq	%rax, %rdx
	movq	%rdi, %rcx
	call	_ZNSt4pairISt8functionIFbvEENSt7__cxx1112basic_stringIcSt11char_traitsIcESaIcEEEEC1IZ4mainEUlvE49_RA20_KcLb1EEEOT_OT0_
	addq	$64, %rdi
	subq	$1, %rbx
	leaq	5131(%rbp), %rax
	leaq	.LC51(%rip), %r8
	movq	%rax, %rdx
	movq	%rdi, %rcx
	call	_ZNSt4pairISt8functionIFbvEENSt7__cxx1112basic_stringIcSt11char_traitsIcESaIcEEEEC1IZ4mainEUlvE50_RA20_KcLb1EEEOT_OT0_
	addq	$64, %rdi
	subq	$1, %rbx
	leaq	5132(%rbp), %rax
	leaq	.LC52(%rip), %r8
	movq	%rax, %rdx
	movq	%rdi, %rcx
	call	_ZNSt4pairISt8functionIFbvEENSt7__cxx1112basic_stringIcSt11char_traitsIcESaIcEEEEC1IZ4mainEUlvE51_RA17_KcLb1EEEOT_OT0_
	addq	$64, %rdi
	subq	$1, %rbx
	leaq	5133(%rbp), %rax
	leaq	.LC53(%rip), %r8
	movq	%rax, %rdx
	movq	%rdi, %rcx
	call	_ZNSt4pairISt8functionIFbvEENSt7__cxx1112basic_stringIcSt11char_traitsIcESaIcEEEEC1IZ4mainEUlvE52_RA18_KcLb1EEEOT_OT0_
	addq	$64, %rdi
	subq	$1, %rbx
	leaq	5134(%rbp), %rax
	leaq	.LC54(%rip), %r8
	movq	%rax, %rdx
	movq	%rdi, %rcx
	call	_ZNSt4pairISt8functionIFbvEENSt7__cxx1112basic_stringIcSt11char_traitsIcESaIcEEEEC1IZ4mainEUlvE53_RA19_KcLb1EEEOT_OT0_
	addq	$64, %rdi
	subq	$1, %rbx
	leaq	5135(%rbp), %rax
	leaq	.LC55(%rip), %r8
	movq	%rax, %rdx
	movq	%rdi, %rcx
	call	_ZNSt4pairISt8functionIFbvEENSt7__cxx1112basic_stringIcSt11char_traitsIcESaIcEEEEC1IZ4mainEUlvE54_RA18_KcLb1EEEOT_OT0_
	addq	$64, %rdi
	subq	$1, %rbx
	leaq	5136(%rbp), %rax
	leaq	.LC56(%rip), %r8
	movq	%rax, %rdx
	movq	%rdi, %rcx
	call	_ZNSt4pairISt8functionIFbvEENSt7__cxx1112basic_stringIcSt11char_traitsIcESaIcEEEEC1IZ4mainEUlvE55_RA17_KcLb1EEEOT_OT0_
	addq	$64, %rdi
	subq	$1, %rbx
	leaq	5137(%rbp), %rax
	leaq	.LC57(%rip), %r8
	movq	%rax, %rdx
	movq	%rdi, %rcx
	call	_ZNSt4pairISt8functionIFbvEENSt7__cxx1112basic_stringIcSt11char_traitsIcESaIcEEEEC1IZ4mainEUlvE56_RA17_KcLb1EEEOT_OT0_
	addq	$64, %rdi
	subq	$1, %rbx
	leaq	5138(%rbp), %rax
	leaq	.LC58(%rip), %r8
	movq	%rax, %rdx
	movq	%rdi, %rcx
	call	_ZNSt4pairISt8functionIFbvEENSt7__cxx1112basic_stringIcSt11char_traitsIcESaIcEEEEC1IZ4mainEUlvE57_RA21_KcLb1EEEOT_OT0_
	addq	$64, %rdi
	subq	$1, %rbx
	leaq	5139(%rbp), %rax
	leaq	.LC59(%rip), %r8
	movq	%rax, %rdx
	movq	%rdi, %rcx
	call	_ZNSt4pairISt8functionIFbvEENSt7__cxx1112basic_stringIcSt11char_traitsIcESaIcEEEEC1IZ4mainEUlvE58_RA17_KcLb1EEEOT_OT0_
	addq	$64, %rdi
	subq	$1, %rbx
	leaq	5140(%rbp), %rax
	leaq	.LC60(%rip), %r8
	movq	%rax, %rdx
	movq	%rdi, %rcx
	call	_ZNSt4pairISt8functionIFbvEENSt7__cxx1112basic_stringIcSt11char_traitsIcESaIcEEEEC1IZ4mainEUlvE59_RA18_KcLb1EEEOT_OT0_
	addq	$64, %rdi
	subq	$1, %rbx
	leaq	5141(%rbp), %rax
	leaq	.LC61(%rip), %r8
	movq	%rax, %rdx
	movq	%rdi, %rcx
	call	_ZNSt4pairISt8functionIFbvEENSt7__cxx1112basic_stringIcSt11char_traitsIcESaIcEEEEC1IZ4mainEUlvE60_RA17_KcLb1EEEOT_OT0_
	addq	$64, %rdi
	subq	$1, %rbx
	leaq	5142(%rbp), %rax
	leaq	.LC62(%rip), %r8
	movq	%rax, %rdx
	movq	%rdi, %rcx
	call	_ZNSt4pairISt8functionIFbvEENSt7__cxx1112basic_stringIcSt11char_traitsIcESaIcEEEEC1IZ4mainEUlvE61_RA20_KcLb1EEEOT_OT0_
	addq	$64, %rdi
	subq	$1, %rbx
	leaq	5143(%rbp), %rax
	leaq	.LC63(%rip), %r8
	movq	%rax, %rdx
	movq	%rdi, %rcx
	call	_ZNSt4pairISt8functionIFbvEENSt7__cxx1112basic_stringIcSt11char_traitsIcESaIcEEEEC1IZ4mainEUlvE62_RA22_KcLb1EEEOT_OT0_
	addq	$64, %rdi
	subq	$1, %rbx
	leaq	5144(%rbp), %rax
	leaq	.LC64(%rip), %r8
	movq	%rax, %rdx
	movq	%rdi, %rcx
	call	_ZNSt4pairISt8functionIFbvEENSt7__cxx1112basic_stringIcSt11char_traitsIcESaIcEEEEC1IZ4mainEUlvE63_RA22_KcLb1EEEOT_OT0_
	addq	$64, %rdi
	subq	$1, %rbx
	leaq	5145(%rbp), %rax
	leaq	.LC65(%rip), %r8
	movq	%rax, %rdx
	movq	%rdi, %rcx
	call	_ZNSt4pairISt8functionIFbvEENSt7__cxx1112basic_stringIcSt11char_traitsIcESaIcEEEEC1IZ4mainEUlvE64_RA22_KcLb1EEEOT_OT0_
	addq	$64, %rdi
	subq	$1, %rbx
	leaq	5146(%rbp), %rax
	leaq	.LC66(%rip), %r8
	movq	%rax, %rdx
	movq	%rdi, %rcx
	call	_ZNSt4pairISt8functionIFbvEENSt7__cxx1112basic_stringIcSt11char_traitsIcESaIcEEEEC1IZ4mainEUlvE65_RA22_KcLb1EEEOT_OT0_
	addq	$64, %rdi
	subq	$1, %rbx
	leaq	5147(%rbp), %rax
	leaq	.LC67(%rip), %r8
	movq	%rax, %rdx
	movq	%rdi, %rcx
	call	_ZNSt4pairISt8functionIFbvEENSt7__cxx1112basic_stringIcSt11char_traitsIcESaIcEEEEC1IZ4mainEUlvE66_RA22_KcLb1EEEOT_OT0_
	addq	$64, %rdi
	subq	$1, %rbx
	leaq	5148(%rbp), %rax
	leaq	.LC68(%rip), %r8
	movq	%rax, %rdx
	movq	%rdi, %rcx
	call	_ZNSt4pairISt8functionIFbvEENSt7__cxx1112basic_stringIcSt11char_traitsIcESaIcEEEEC1IZ4mainEUlvE67_RA22_KcLb1EEEOT_OT0_
	addq	$64, %rdi
	subq	$1, %rbx
	leaq	5149(%rbp), %rax
	leaq	.LC69(%rip), %r8
	movq	%rax, %rdx
	movq	%rdi, %rcx
	call	_ZNSt4pairISt8functionIFbvEENSt7__cxx1112basic_stringIcSt11char_traitsIcESaIcEEEEC1IZ4mainEUlvE68_RA24_KcLb1EEEOT_OT0_
	addq	$64, %rdi
	subq	$1, %rbx
	leaq	5150(%rbp), %rax
	leaq	.LC70(%rip), %r8
	movq	%rax, %rdx
	movq	%rdi, %rcx
	call	_ZNSt4pairISt8functionIFbvEENSt7__cxx1112basic_stringIcSt11char_traitsIcESaIcEEEEC1IZ4mainEUlvE69_RA24_KcLb1EEEOT_OT0_
	addq	$64, %rdi
	subq	$1, %rbx
	leaq	5151(%rbp), %rax
	leaq	.LC71(%rip), %r8
	movq	%rax, %rdx
	movq	%rdi, %rcx
	call	_ZNSt4pairISt8functionIFbvEENSt7__cxx1112basic_stringIcSt11char_traitsIcESaIcEEEEC1IZ4mainEUlvE70_RA26_KcLb1EEEOT_OT0_
	addq	$64, %rdi
	subq	$1, %rbx
	leaq	5152(%rbp), %rax
	leaq	.LC72(%rip), %r8
	movq	%rax, %rdx
	movq	%rdi, %rcx
	call	_ZNSt4pairISt8functionIFbvEENSt7__cxx1112basic_stringIcSt11char_traitsIcESaIcEEEEC1IZ4mainEUlvE71_RA26_KcLb1EEEOT_OT0_
	addq	$64, %rdi
	subq	$1, %rbx
	leaq	5153(%rbp), %rax
	leaq	.LC73(%rip), %r8
	movq	%rax, %rdx
	movq	%rdi, %rcx
	call	_ZNSt4pairISt8functionIFbvEENSt7__cxx1112basic_stringIcSt11char_traitsIcESaIcEEEEC1IZ4mainEUlvE72_RA29_KcLb1EEEOT_OT0_
	addq	$64, %rdi
	subq	$1, %rbx
	leaq	5154(%rbp), %rax
	leaq	.LC74(%rip), %r8
	movq	%rax, %rdx
	movq	%rdi, %rcx
	call	_ZNSt4pairISt8functionIFbvEENSt7__cxx1112basic_stringIcSt11char_traitsIcESaIcEEEEC1IZ4mainEUlvE73_RA25_KcLb1EEEOT_OT0_
	addq	$64, %rdi
	subq	$1, %rbx
	leaq	5155(%rbp), %rax
	leaq	.LC75(%rip), %r8
	movq	%rax, %rdx
	movq	%rdi, %rcx
	call	_ZNSt4pairISt8functionIFbvEENSt7__cxx1112basic_stringIcSt11char_traitsIcESaIcEEEEC1IZ4mainEUlvE74_RA18_KcLb1EEEOT_OT0_
	addq	$64, %rdi
	subq	$1, %rbx
	leaq	5156(%rbp), %rax
	leaq	.LC76(%rip), %r8
	movq	%rax, %rdx
	movq	%rdi, %rcx
	call	_ZNSt4pairISt8functionIFbvEENSt7__cxx1112basic_stringIcSt11char_traitsIcESaIcEEEEC1IZ4mainEUlvE75_RA24_KcLb1EEEOT_OT0_
	addq	$64, %rdi
	subq	$1, %rbx
	leaq	5157(%rbp), %rax
	leaq	.LC77(%rip), %r8
	movq	%rax, %rdx
	movq	%rdi, %rcx
	call	_ZNSt4pairISt8functionIFbvEENSt7__cxx1112basic_stringIcSt11char_traitsIcESaIcEEEEC1IZ4mainEUlvE76_RA24_KcLb1EEEOT_OT0_
	leaq	64(%rdi), %rcx
	subq	$1, %rbx
	leaq	5158(%rbp), %rax
	leaq	.LC78(%rip), %r8
	movq	%rax, %rdx
	call	_ZNSt4pairISt8functionIFbvEENSt7__cxx1112basic_stringIcSt11char_traitsIcESaIcEEEEC1IZ4mainEUlvE77_RA26_KcLb1EEEOT_OT0_
.LEHE160:
	movl	$35, %ebx
	leaq	2816(%rbp), %rax
	movq	%rax, %r12
	movl	$36, %r13d
	leaq	5159(%rbp), %rax
	movq	%rax, %rcx
	call	_ZNSaISt4pairISt8functionIFbvEENSt7__cxx1112basic_stringIcSt11char_traitsIcESaIcEEEEEC1Ev
	movq	%r12, -96(%rbp)
	movq	%r13, -88(%rbp)
	leaq	5159(%rbp), %rcx
	leaq	-96(%rbp), %rdx
	leaq	-48(%rbp), %rax
	movq	%rcx, %r8
	movq	%rax, %rcx
.LEHB161:
	call	_ZNSt7__cxx114listISt4pairISt8functionIFbvEENS_12basic_stringIcSt11char_traitsIcESaIcEEEESaISA_EEC1ESt16initializer_listISA_ERKSB_
.LEHE161:
	leaq	5159(%rbp), %rax
	movq	%rax, %rcx
	call	_ZNSaISt4pairISt8functionIFbvEENSt7__cxx1112basic_stringIcSt11char_traitsIcESaIcEEEEED1Ev
	leaq	2816(%rbp), %rbx
	addq	$2304, %rbx
.L501:
	leaq	2816(%rbp), %rax
	cmpq	%rax, %rbx
	je	.L500
	subq	$64, %rbx
	movq	%rbx, %rcx
	call	_ZNSt4pairISt8functionIFbvEENSt7__cxx1112basic_stringIcSt11char_traitsIcESaIcEEEED1Ev
	jmp	.L501
.L500:
	leaq	-16(%rbp), %rax
	movq	%rax, 5224(%rbp)
	movq	5224(%rbp), %rax
	movq	%rax, %rcx
	call	_ZNKSt7__cxx114listISt4pairISt8functionIFbvEENS_12basic_stringIcSt11char_traitsIcESaIcEEEESaISA_EE5beginEv
	movq	%rax, -56(%rbp)
	movq	5224(%rbp), %rax
	movq	%rax, %rcx
	call	_ZNKSt7__cxx114listISt4pairISt8functionIFbvEENS_12basic_stringIcSt11char_traitsIcESaIcEEEESaISA_EE3endEv
	movq	%rax, -64(%rbp)
	jmp	.L502
.L504:
	leaq	-56(%rbp), %rax
	movq	%rax, %rcx
	call	_ZNKSt20_List_const_iteratorISt4pairISt8functionIFbvEENSt7__cxx1112basic_stringIcSt11char_traitsIcESaIcEEEEEdeEv
	movq	%rax, 5184(%rbp)
	movq	5184(%rbp), %rax
	movq	%rax, 5176(%rbp)
	movq	5184(%rbp), %rax
	addq	$32, %rax
	movq	%rax, 5168(%rbp)
	movq	5176(%rbp), %rax
	movq	%rax, %rcx
.LEHB162:
	call	_ZNKSt8functionIFbvEEclEv
	testb	%al, %al
	je	.L503
	movq	5168(%rbp), %rax
	movq	%rax, %rdx
	movq	.refptr._ZSt4cout(%rip), %rax
	movq	%rax, %rcx
	call	_ZStlsIcSt11char_traitsIcESaIcEERSt13basic_ostreamIT_T0_ES7_RKNSt7__cxx1112basic_stringIS4_S5_T1_EE
	movq	%rax, %rcx
	movq	.refptr._ZSt4endlIcSt11char_traitsIcEERSt13basic_ostreamIT_T0_ES6_(%rip), %rax
	movq	%rax, %rdx
	call	_ZNSolsEPFRSoS_E
.L503:
	leaq	-56(%rbp), %rax
	movq	%rax, %rcx
	call	_ZNSt20_List_const_iteratorISt4pairISt8functionIFbvEENSt7__cxx1112basic_stringIcSt11char_traitsIcESaIcEEEEEppEv
.L502:
	leaq	-64(%rbp), %rdx
	leaq	-56(%rbp), %rax
	movq	%rax, %rcx
	call	_ZStneRKSt20_List_const_iteratorISt4pairISt8functionIFbvEENSt7__cxx1112basic_stringIcSt11char_traitsIcESaIcEEEEESD_
	testb	%al, %al
	jne	.L504
	leaq	-48(%rbp), %rax
	movq	%rax, 5216(%rbp)
	movq	5216(%rbp), %rax
	movq	%rax, %rcx
	call	_ZNKSt7__cxx114listISt4pairISt8functionIFbvEENS_12basic_stringIcSt11char_traitsIcESaIcEEEESaISA_EE5beginEv
	movq	%rax, -72(%rbp)
	movq	5216(%rbp), %rax
	movq	%rax, %rcx
	call	_ZNKSt7__cxx114listISt4pairISt8functionIFbvEENS_12basic_stringIcSt11char_traitsIcESaIcEEEESaISA_EE3endEv
	movq	%rax, -80(%rbp)
	jmp	.L505
.L507:
	leaq	-72(%rbp), %rax
	movq	%rax, %rcx
	call	_ZNKSt20_List_const_iteratorISt4pairISt8functionIFbvEENSt7__cxx1112basic_stringIcSt11char_traitsIcESaIcEEEEEdeEv
	movq	%rax, 5208(%rbp)
	movq	5208(%rbp), %rax
	movq	%rax, 5200(%rbp)
	movq	5208(%rbp), %rax
	addq	$32, %rax
	movq	%rax, 5192(%rbp)
	movq	5200(%rbp), %rax
	movq	%rax, %rcx
	call	_ZNKSt8functionIFbvEEclEv
	testb	%al, %al
	je	.L506
